SF:/home/coding/miroir/crates/miroir-core/src/anti_entropy.rs
FN:43,_RNvNtCs14cwtawSGIg_11miroir_core12anti_entropy25validate_migration_safety
FN:59,_RNvNtCs14cwtawSGIg_11miroir_core12anti_entropy32migration_warning_if_ae_disabled
FN:23,_RNvXNtCs14cwtawSGIg_11miroir_core12anti_entropyNtB2_17AntiEntropyConfigNtNtCs1p5UDGgVI4d_4core7default7Default7default
FN:117,_RNvNtNtCs14cwtawSGIg_11miroir_core12anti_entropy5testss_29test_warning_when_ae_disabled
FN:76,_RNvNtNtCs14cwtawSGIg_11miroir_core12anti_entropy5testss_34test_validate_safe_with_delta_pass
FN:89,_RNvNtNtCs14cwtawSGIg_11miroir_core12anti_entropy5testss_41test_validate_unsafe_without_anti_entropy
FN:103,_RNvNtNtCs14cwtawSGIg_11miroir_core12anti_entropy5testss_47test_validate_safe_with_anti_entropy_safety_net
FNDA:6,_RNvNtCs14cwtawSGIg_11miroir_core12anti_entropy25validate_migration_safety
FNDA:4,_RNvNtCs14cwtawSGIg_11miroir_core12anti_entropy32migration_warning_if_ae_disabled
FNDA:6,_RNvXNtCs14cwtawSGIg_11miroir_core12anti_entropyNtB2_17AntiEntropyConfigNtNtCs1p5UDGgVI4d_4core7default7Default7default
FNDA:2,_RNvNtNtCs14cwtawSGIg_11miroir_core12anti_entropy5testss_29test_warning_when_ae_disabled
FNDA:2,_RNvNtNtCs14cwtawSGIg_11miroir_core12anti_entropy5testss_34test_validate_safe_with_delta_pass
FNDA:2,_RNvNtNtCs14cwtawSGIg_11miroir_core12anti_entropy5testss_41test_validate_unsafe_without_anti_entropy
FNDA:2,_RNvNtNtCs14cwtawSGIg_11miroir_core12anti_entropy5testss_47test_validate_safe_with_anti_entropy_safety_net
FNF:7
FNH:7
DA:23,6
DA:24,6
DA:25,6
DA:26,6
DA:27,6
DA:28,6
DA:29,6
DA:30,6
DA:31,6
DA:32,6
DA:33,6
DA:43,6
DA:44,6
DA:45,6
DA:46,6
DA:47,6
DA:48,2
DA:49,4
DA:50,4
DA:51,6
DA:59,4
DA:60,4
DA:61,2
DA:62,2
DA:63,2
DA:64,2
DA:65,2
DA:66,2
DA:67,2
DA:68,2
DA:69,4
DA:76,2
DA:77,2
DA:78,2
DA:79,2
DA:80,2
DA:81,2
DA:82,2
DA:83,2
DA:84,2
DA:85,2
DA:86,2
DA:89,2
DA:90,2
DA:91,2
DA:92,2
DA:93,2
DA:94,2
DA:95,2
DA:96,2
DA:97,2
DA:98,2
DA:99,2
DA:100,2
DA:103,2
DA:104,2
DA:105,2
DA:106,2
DA:107,2
DA:108,2
DA:109,2
DA:110,2
DA:111,2
DA:112,2
DA:113,2
DA:114,2
DA:117,2
DA:118,2
DA:119,2
DA:120,2
BRF:0
BRH:0
LF:70
LH:70
end_of_record
SF:/home/coding/miroir/crates/miroir-core/src/config.rs
FN:129,_RNvMs_NtCs14cwtawSGIg_11miroir_core6configNtB4_12MiroirConfig4load
FN:139,_RNvMs_NtCs14cwtawSGIg_11miroir_core6configNtB4_12MiroirConfig9from_yaml
FN:134,_RNvMs_NtCs14cwtawSGIg_11miroir_core6configNtB4_12MiroirConfig9load_from
FN:381,_RNvXsa_NtCs14cwtawSGIg_11miroir_core6configNtB5_22UnavailableShardPolicyNtNtCs1p5UDGgVI4d_4core7default7Default7default
FN:387,_RNvXsb_NtCs14cwtawSGIg_11miroir_core6configNtB5_22UnavailableShardPolicyNtNtCs1p5UDGgVI4d_4core3fmt7Display3fmt
FN:401,_RNvNtNtCs14cwtawSGIg_11miroir_core6config5tests10dev_config
FN:501,_RNvNtNtCs14cwtawSGIg_11miroir_core6config5testss_15round_trip_yaml
FN:427,_RNvNtNtCs14cwtawSGIg_11miroir_core6config5testss_23default_config_is_valid
FN:438,_RNvNtNtCs14cwtawSGIg_11miroir_core6config5testss_25minimal_yaml_deserializes
FN:565,_RNvNtNtCs14cwtawSGIg_11miroir_core6config5testss_29advanced_defaults_all_enabled
FN:454,_RNvNtNtCs14cwtawSGIg_11miroir_core6config5testss_30full_plan_example_deserializes
FN:517,_RNvNtNtCs14cwtawSGIg_11miroir_core6config5testss_30validation_rejects_zero_shards
FN:509,_RNvNtNtCs14cwtawSGIg_11miroir_core6config5testss_33validation_rejects_ha_with_sqlite
FN:525,_RNvNtNtCs14cwtawSGIg_11miroir_core6config5testss_37validation_rejects_duplicate_node_ids
FN:544,_RNvNtNtCs14cwtawSGIg_11miroir_core6config5testss_46validation_rejects_node_outside_replica_groups
FN:556,_RNvNtNtCs14cwtawSGIg_11miroir_core6config5testss_46validation_rejects_scoped_key_timing_inversion
FN:124,_RNvMs_NtCs14cwtawSGIg_11miroir_core6configNtB4_12MiroirConfig8validate
FN:272,_RNvNtCs14cwtawSGIg_11miroir_core6config26default_request_timeout_ms
FN:269,_RNvNtCs14cwtawSGIg_11miroir_core6config31default_max_concurrent_requests
FN:76,_RNvXNtCs14cwtawSGIg_11miroir_core6configNtB2_12MiroirConfigNtNtCs1p5UDGgVI4d_4core7default7Default7default
FN:169,_RNvXs0_NtCs14cwtawSGIg_11miroir_core6configNtB5_15TaskStoreConfigNtNtCs1p5UDGgVI4d_4core7default7Default7default
FN:188,_RNvXs1_NtCs14cwtawSGIg_11miroir_core6configNtB5_11AdminConfigNtNtCs1p5UDGgVI4d_4core7default7Default7default
FN:207,_RNvXs2_NtCs14cwtawSGIg_11miroir_core6configNtB5_12HealthConfigNtNtCs1p5UDGgVI4d_4core7default7Default7default
FN:228,_RNvXs3_NtCs14cwtawSGIg_11miroir_core6configNtB5_13ScatterConfigNtNtCs1p5UDGgVI4d_4core7default7Default7default
FN:247,_RNvXs4_NtCs14cwtawSGIg_11miroir_core6configNtB5_16RebalancerConfigNtNtCs1p5UDGgVI4d_4core7default7Default7default
FN:277,_RNvXs5_NtCs14cwtawSGIg_11miroir_core6configNtB5_12ServerConfigNtNtCs1p5UDGgVI4d_4core7default7Default7default
FN:298,_RNvXs6_NtCs14cwtawSGIg_11miroir_core6configNtB5_20ConnectionPoolConfigNtNtCs1p5UDGgVI4d_4core7default7Default7default
FN:316,_RNvXs7_NtCs14cwtawSGIg_11miroir_core6configNtB5_18TaskRegistryConfigNtNtCs1p5UDGgVI4d_4core7default7Default7default
FN:333,_RNvXs8_NtCs14cwtawSGIg_11miroir_core6configNtB5_19PeerDiscoveryConfigNtNtCs1p5UDGgVI4d_4core7default7Default7default
FN:351,_RNvXs9_NtCs14cwtawSGIg_11miroir_core6configNtB5_20LeaderElectionConfigNtNtCs1p5UDGgVI4d_4core7default7Default7default
FNDA:0,_RNvMs_NtCs14cwtawSGIg_11miroir_core6configNtB4_12MiroirConfig4load
FNDA:0,_RNvMs_NtCs14cwtawSGIg_11miroir_core6configNtB4_12MiroirConfig9from_yaml
FNDA:0,_RNvMs_NtCs14cwtawSGIg_11miroir_core6configNtB4_12MiroirConfig9load_from
FNDA:0,_RNvXsa_NtCs14cwtawSGIg_11miroir_core6configNtB5_22UnavailableShardPolicyNtNtCs1p5UDGgVI4d_4core7default7Default7default
FNDA:0,_RNvXsb_NtCs14cwtawSGIg_11miroir_core6configNtB5_22UnavailableShardPolicyNtNtCs1p5UDGgVI4d_4core3fmt7Display3fmt
FNDA:10,_RNvNtNtCs14cwtawSGIg_11miroir_core6config5tests10dev_config
FNDA:2,_RNvNtNtCs14cwtawSGIg_11miroir_core6config5testss_15round_trip_yaml
FNDA:2,_RNvNtNtCs14cwtawSGIg_11miroir_core6config5testss_23default_config_is_valid
FNDA:2,_RNvNtNtCs14cwtawSGIg_11miroir_core6config5testss_25minimal_yaml_deserializes
FNDA:2,_RNvNtNtCs14cwtawSGIg_11miroir_core6config5testss_29advanced_defaults_all_enabled
FNDA:2,_RNvNtNtCs14cwtawSGIg_11miroir_core6config5testss_30full_plan_example_deserializes
FNDA:2,_RNvNtNtCs14cwtawSGIg_11miroir_core6config5testss_30validation_rejects_zero_shards
FNDA:2,_RNvNtNtCs14cwtawSGIg_11miroir_core6config5testss_33validation_rejects_ha_with_sqlite
FNDA:2,_RNvNtNtCs14cwtawSGIg_11miroir_core6config5testss_37validation_rejects_duplicate_node_ids
FNDA:2,_RNvNtNtCs14cwtawSGIg_11miroir_core6config5testss_46validation_rejects_node_outside_replica_groups
FNDA:2,_RNvNtNtCs14cwtawSGIg_11miroir_core6config5testss_46validation_rejects_scoped_key_timing_inversion
FNDA:22,_RNvMs_NtCs14cwtawSGIg_11miroir_core6configNtB4_12MiroirConfig8validate
FNDA:42,_RNvNtCs14cwtawSGIg_11miroir_core6config26default_request_timeout_ms
FNDA:42,_RNvNtCs14cwtawSGIg_11miroir_core6config31default_max_concurrent_requests
FNDA:32,_RNvXNtCs14cwtawSGIg_11miroir_core6configNtB2_12MiroirConfigNtNtCs1p5UDGgVI4d_4core7default7Default7default
FNDA:50,_RNvXs0_NtCs14cwtawSGIg_11miroir_core6configNtB5_15TaskStoreConfigNtNtCs1p5UDGgVI4d_4core7default7Default7default
FNDA:38,_RNvXs1_NtCs14cwtawSGIg_11miroir_core6configNtB5_11AdminConfigNtNtCs1p5UDGgVI4d_4core7default7Default7default
FNDA:38,_RNvXs2_NtCs14cwtawSGIg_11miroir_core6configNtB5_12HealthConfigNtNtCs1p5UDGgVI4d_4core7default7Default7default
FNDA:38,_RNvXs3_NtCs14cwtawSGIg_11miroir_core6configNtB5_13ScatterConfigNtNtCs1p5UDGgVI4d_4core7default7Default7default
FNDA:38,_RNvXs4_NtCs14cwtawSGIg_11miroir_core6configNtB5_16RebalancerConfigNtNtCs1p5UDGgVI4d_4core7default7Default7default
FNDA:38,_RNvXs5_NtCs14cwtawSGIg_11miroir_core6configNtB5_12ServerConfigNtNtCs1p5UDGgVI4d_4core7default7Default7default
FNDA:34,_RNvXs6_NtCs14cwtawSGIg_11miroir_core6configNtB5_20ConnectionPoolConfigNtNtCs1p5UDGgVI4d_4core7default7Default7default
FNDA:34,_RNvXs7_NtCs14cwtawSGIg_11miroir_core6configNtB5_18TaskRegistryConfigNtNtCs1p5UDGgVI4d_4core7default7Default7default
FNDA:34,_RNvXs8_NtCs14cwtawSGIg_11miroir_core6configNtB5_19PeerDiscoveryConfigNtNtCs1p5UDGgVI4d_4core7default7Default7default
FNDA:38,_RNvXs9_NtCs14cwtawSGIg_11miroir_core6configNtB5_20LeaderElectionConfigNtNtCs1p5UDGgVI4d_4core7default7Default7default
FNF:30
FNH:25
DA:76,32
DA:77,32
DA:78,32
DA:79,32
DA:80,32
DA:81,32
DA:82,32
DA:83,32
DA:84,32
DA:85,32
DA:86,32
DA:87,32
DA:88,32
DA:89,32
DA:90,32
DA:91,32
DA:92,32
DA:93,32
DA:94,32
DA:95,32
DA:96,32
DA:97,32
DA:98,32
DA:99,32
DA:100,32
DA:101,32
DA:102,32
DA:103,32
DA:104,32
DA:105,32
DA:106,32
DA:107,32
DA:108,32
DA:109,32
DA:110,32
DA:111,32
DA:112,32
DA:113,32
DA:114,32
DA:115,32
DA:116,32
DA:117,32
DA:118,32
DA:119,32
DA:124,22
DA:125,22
DA:126,22
DA:129,0
DA:130,0
DA:131,0
DA:134,0
DA:135,0
DA:136,0
DA:139,0
DA:140,0
DA:141,0
DA:169,50
DA:170,50
DA:171,50
DA:172,50
DA:173,50
DA:174,50
DA:175,50
DA:188,38
DA:189,38
DA:190,38
DA:191,38
DA:192,38
DA:193,38
DA:207,38
DA:208,38
DA:209,38
DA:210,38
DA:211,38
DA:212,38
DA:213,38
DA:214,38
DA:228,38
DA:229,38
DA:230,38
DA:231,38
DA:232,38
DA:233,38
DA:234,38
DA:247,38
DA:248,38
DA:249,38
DA:250,38
DA:251,38
DA:252,38
DA:253,38
DA:269,42
DA:270,42
DA:271,42
DA:272,42
DA:273,42
DA:274,42
DA:277,38
DA:278,38
DA:279,38
DA:280,38
DA:281,38
DA:282,38
DA:283,38
DA:284,38
DA:285,38
DA:298,34
DA:299,34
DA:300,34
DA:301,34
DA:302,34
DA:303,34
DA:304,34
DA:316,34
DA:317,34
DA:318,34
DA:319,34
DA:320,34
DA:321,34
DA:333,34
DA:334,34
DA:335,34
DA:336,34
DA:337,34
DA:338,34
DA:351,38
DA:352,38
DA:353,38
DA:354,38
DA:355,38
DA:356,38
DA:357,38
DA:381,0
DA:382,0
DA:383,0
DA:387,0
DA:388,0
DA:389,0
DA:390,0
DA:391,0
DA:393,0
DA:401,10
DA:402,10
DA:403,10
DA:404,10
DA:405,10
DA:406,10
DA:407,10
DA:408,10
DA:409,10
DA:410,10
DA:411,10
DA:412,10
DA:413,10
DA:414,10
DA:415,10
DA:416,10
DA:417,10
DA:418,10
DA:419,10
DA:420,10
DA:421,10
DA:422,10
DA:423,10
DA:424,10
DA:427,2
DA:428,2
DA:431,2
DA:432,2
DA:433,2
DA:434,2
DA:435,2
DA:438,2
DA:439,2
DA:440,2
DA:441,2
DA:442,2
DA:443,2
DA:444,2
DA:445,2
DA:446,2
DA:448,2
DA:449,2
DA:450,2
DA:451,2
DA:454,2
DA:455,2
DA:456,2
DA:457,2
DA:458,2
DA:459,2
DA:460,2
DA:461,2
DA:462,2
DA:463,2
DA:464,2
DA:465,2
DA:466,2
DA:467,2
DA:468,2
DA:469,2
DA:470,2
DA:471,2
DA:472,2
DA:473,2
DA:474,2
DA:475,2
DA:476,2
DA:477,2
DA:478,2
DA:479,2
DA:480,2
DA:481,2
DA:482,2
DA:483,2
DA:484,2
DA:485,2
DA:486,2
DA:487,2
DA:488,2
DA:489,2
DA:490,2
DA:491,2
DA:492,2
DA:493,2
DA:494,2
DA:495,2
DA:496,2
DA:497,2
DA:498,2
DA:501,2
DA:502,2
DA:503,2
DA:504,2
DA:505,2
DA:506,2
DA:509,2
DA:510,2
DA:511,2
DA:512,2
DA:513,2
DA:514,2
DA:517,2
DA:518,2
DA:519,2
DA:520,2
DA:521,2
DA:522,2
DA:525,2
DA:526,2
DA:527,2
DA:528,2
DA:529,2
DA:530,2
DA:531,2
DA:532,2
DA:533,2
DA:534,2
DA:535,2
DA:536,2
DA:537,2
DA:539,2
DA:540,2
DA:541,2
DA:544,2
DA:545,2
DA:546,2
DA:547,2
DA:548,2
DA:549,2
DA:550,2
DA:551,2
DA:552,2
DA:553,2
DA:556,2
DA:557,2
DA:558,2
DA:559,2
DA:560,2
DA:561,2
DA:562,2
DA:565,2
DA:566,2
DA:567,2
DA:568,2
DA:569,2
DA:570,2
DA:571,2
DA:572,2
DA:573,2
DA:574,2
DA:575,2
DA:576,2
DA:577,2
DA:578,2
DA:579,2
DA:580,2
DA:581,2
DA:582,2
DA:583,2
DA:584,2
DA:585,2
DA:586,2
DA:587,2
DA:588,2
DA:589,2
BRF:0
BRH:0
LF:306
LH:288
end_of_record
SF:/home/coding/miroir/crates/miroir-core/src/config/advanced.rs
FN:22,_RNvXNtNtCs14cwtawSGIg_11miroir_core6config8advancedNtB2_16ReshardingConfigNtNtCs1p5UDGgVI4d_4core7default7Default7default
FN:77,_RNvXs0_NtNtCs14cwtawSGIg_11miroir_core6config8advancedNtB5_22ReplicaSelectionConfigNtNtCs1p5UDGgVI4d_4core7default7Default7default
FN:102,_RNvXs1_NtNtCs14cwtawSGIg_11miroir_core6config8advancedNtB5_18QueryPlannerConfigNtNtCs1p5UDGgVI4d_4core7default7Default7default
FN:126,_RNvXs2_NtNtCs14cwtawSGIg_11miroir_core6config8advancedNtB5_23SettingsBroadcastConfigNtNtCs1p5UDGgVI4d_4core7default7Default7default
FN:144,_RNvXs3_NtNtCs14cwtawSGIg_11miroir_core6config8advancedNtB5_24SettingsDriftCheckConfigNtNtCs1p5UDGgVI4d_4core7default7Default7default
FN:168,_RNvXs4_NtNtCs14cwtawSGIg_11miroir_core6config8advancedNtB5_20SessionPinningConfigNtNtCs1p5UDGgVI4d_4core7default7Default7default
FN:192,_RNvXs5_NtNtCs14cwtawSGIg_11miroir_core6config8advancedNtB5_13AliasesConfigNtNtCs1p5UDGgVI4d_4core7default7Default7default
FN:218,_RNvXs6_NtNtCs14cwtawSGIg_11miroir_core6config8advancedNtB5_17AntiEntropyConfigNtNtCs1p5UDGgVI4d_4core7default7Default7default
FN:247,_RNvXs7_NtNtCs14cwtawSGIg_11miroir_core6config8advancedNtB5_16DumpImportConfigNtNtCs1p5UDGgVI4d_4core7default7Default7default
FN:271,_RNvXs8_NtNtCs14cwtawSGIg_11miroir_core6config8advancedNtB5_17IdempotencyConfigNtNtCs1p5UDGgVI4d_4core7default7Default7default
FN:294,_RNvXs9_NtNtCs14cwtawSGIg_11miroir_core6config8advancedNtB5_21QueryCoalescingConfigNtNtCs1p5UDGgVI4d_4core7default7Default7default
FN:49,_RNvXs_NtNtCs14cwtawSGIg_11miroir_core6config8advancedNtB4_13HedgingConfigNtNtCs1p5UDGgVI4d_4core7default7Default7default
FN:318,_RNvXsa_NtNtCs14cwtawSGIg_11miroir_core6config8advancedNtB5_17MultiSearchConfigNtNtCs1p5UDGgVI4d_4core7default7Default7default
FN:344,_RNvXsb_NtNtCs14cwtawSGIg_11miroir_core6config8advancedNtB5_18VectorSearchConfigNtNtCs1p5UDGgVI4d_4core7default7Default7default
FN:370,_RNvXsc_NtNtCs14cwtawSGIg_11miroir_core6config8advancedNtB5_9CdcConfigNtNtCs1p5UDGgVI4d_4core7default7Default7default
FN:397,_RNvXsd_NtNtCs14cwtawSGIg_11miroir_core6config8advancedNtB5_13CdcSinkConfigNtNtCs1p5UDGgVI4d_4core7default7Default7default
FN:422,_RNvXse_NtNtCs14cwtawSGIg_11miroir_core6config8advancedNtB5_15CdcBufferConfigNtNtCs1p5UDGgVI4d_4core7default7Default7default
FN:453,_RNvXsf_NtNtCs14cwtawSGIg_11miroir_core6config8advancedNtB5_9TtlConfigNtNtCs1p5UDGgVI4d_4core7default7Default7default
FN:482,_RNvXsg_NtNtCs14cwtawSGIg_11miroir_core6config8advancedNtB5_20TenantAffinityConfigNtNtCs1p5UDGgVI4d_4core7default7Default7default
FN:508,_RNvXsh_NtNtCs14cwtawSGIg_11miroir_core6config8advancedNtB5_12ShadowConfigNtNtCs1p5UDGgVI4d_4core7default7Default7default
FN:529,_RNvXsi_NtNtCs14cwtawSGIg_11miroir_core6config8advancedNtB5_18ShadowTargetConfigNtNtCs1p5UDGgVI4d_4core7default7Default7default
FN:554,_RNvXsj_NtNtCs14cwtawSGIg_11miroir_core6config8advancedNtB5_9IlmConfigNtNtCs1p5UDGgVI4d_4core7default7Default7default
FN:578,_RNvXsk_NtNtCs14cwtawSGIg_11miroir_core6config8advancedNtB5_18CanaryRunnerConfigNtNtCs1p5UDGgVI4d_4core7default7Default7default
FN:609,_RNvXsl_NtNtCs14cwtawSGIg_11miroir_core6config8advancedNtB5_13AdminUiConfigNtNtCs1p5UDGgVI4d_4core7default7Default7default
FN:642,_RNvXsm_NtNtCs14cwtawSGIg_11miroir_core6config8advancedNtB5_18AdminUiThemeConfigNtNtCs1p5UDGgVI4d_4core7default7Default7default
FN:659,_RNvXsn_NtNtCs14cwtawSGIg_11miroir_core6config8advancedNtB5_21AdminUiFeaturesConfigNtNtCs1p5UDGgVI4d_4core7default7Default7default
FN:681,_RNvXso_NtNtCs14cwtawSGIg_11miroir_core6config8advancedNtB5_13ExplainConfigNtNtCs1p5UDGgVI4d_4core7default7Default7default
FN:714,_RNvXsp_NtNtCs14cwtawSGIg_11miroir_core6config8advancedNtB5_14SearchUiConfigNtNtCs1p5UDGgVI4d_4core7default7Default7default
FN:748,_RNvXsq_NtNtCs14cwtawSGIg_11miroir_core6config8advancedNtB5_18SearchUiAuthConfigNtNtCs1p5UDGgVI4d_4core7default7Default7default
FN:770,_RNvXsr_NtNtCs14cwtawSGIg_11miroir_core6config8advancedNtB5_16OAuthProxyConfigNtNtCs1p5UDGgVI4d_4core7default7Default7default
FN:796,_RNvXss_NtNtCs14cwtawSGIg_11miroir_core6config8advancedNtB5_23SearchUiRateLimitConfigNtNtCs1p5UDGgVI4d_4core7default7Default7default
FN:815,_RNvXst_NtNtCs14cwtawSGIg_11miroir_core6config8advancedNtB5_23SearchUiAnalyticsConfigNtNtCs1p5UDGgVI4d_4core7default7Default7default
FNDA:34,_RNvXNtNtCs14cwtawSGIg_11miroir_core6config8advancedNtB2_16ReshardingConfigNtNtCs1p5UDGgVI4d_4core7default7Default7default
FNDA:34,_RNvXs0_NtNtCs14cwtawSGIg_11miroir_core6config8advancedNtB5_22ReplicaSelectionConfigNtNtCs1p5UDGgVI4d_4core7default7Default7default
FNDA:34,_RNvXs1_NtNtCs14cwtawSGIg_11miroir_core6config8advancedNtB5_18QueryPlannerConfigNtNtCs1p5UDGgVI4d_4core7default7Default7default
FNDA:34,_RNvXs2_NtNtCs14cwtawSGIg_11miroir_core6config8advancedNtB5_23SettingsBroadcastConfigNtNtCs1p5UDGgVI4d_4core7default7Default7default
FNDA:34,_RNvXs3_NtNtCs14cwtawSGIg_11miroir_core6config8advancedNtB5_24SettingsDriftCheckConfigNtNtCs1p5UDGgVI4d_4core7default7Default7default
FNDA:34,_RNvXs4_NtNtCs14cwtawSGIg_11miroir_core6config8advancedNtB5_20SessionPinningConfigNtNtCs1p5UDGgVI4d_4core7default7Default7default
FNDA:34,_RNvXs5_NtNtCs14cwtawSGIg_11miroir_core6config8advancedNtB5_13AliasesConfigNtNtCs1p5UDGgVI4d_4core7default7Default7default
FNDA:34,_RNvXs6_NtNtCs14cwtawSGIg_11miroir_core6config8advancedNtB5_17AntiEntropyConfigNtNtCs1p5UDGgVI4d_4core7default7Default7default
FNDA:34,_RNvXs7_NtNtCs14cwtawSGIg_11miroir_core6config8advancedNtB5_16DumpImportConfigNtNtCs1p5UDGgVI4d_4core7default7Default7default
FNDA:34,_RNvXs8_NtNtCs14cwtawSGIg_11miroir_core6config8advancedNtB5_17IdempotencyConfigNtNtCs1p5UDGgVI4d_4core7default7Default7default
FNDA:34,_RNvXs9_NtNtCs14cwtawSGIg_11miroir_core6config8advancedNtB5_21QueryCoalescingConfigNtNtCs1p5UDGgVI4d_4core7default7Default7default
FNDA:34,_RNvXs_NtNtCs14cwtawSGIg_11miroir_core6config8advancedNtB4_13HedgingConfigNtNtCs1p5UDGgVI4d_4core7default7Default7default
FNDA:34,_RNvXsa_NtNtCs14cwtawSGIg_11miroir_core6config8advancedNtB5_17MultiSearchConfigNtNtCs1p5UDGgVI4d_4core7default7Default7default
FNDA:34,_RNvXsb_NtNtCs14cwtawSGIg_11miroir_core6config8advancedNtB5_18VectorSearchConfigNtNtCs1p5UDGgVI4d_4core7default7Default7default
FNDA:46,_RNvXsc_NtNtCs14cwtawSGIg_11miroir_core6config8advancedNtB5_9CdcConfigNtNtCs1p5UDGgVI4d_4core7default7Default7default
FNDA:0,_RNvXsd_NtNtCs14cwtawSGIg_11miroir_core6config8advancedNtB5_13CdcSinkConfigNtNtCs1p5UDGgVI4d_4core7default7Default7default
FNDA:58,_RNvXse_NtNtCs14cwtawSGIg_11miroir_core6config8advancedNtB5_15CdcBufferConfigNtNtCs1p5UDGgVI4d_4core7default7Default7default
FNDA:34,_RNvXsf_NtNtCs14cwtawSGIg_11miroir_core6config8advancedNtB5_9TtlConfigNtNtCs1p5UDGgVI4d_4core7default7Default7default
FNDA:34,_RNvXsg_NtNtCs14cwtawSGIg_11miroir_core6config8advancedNtB5_20TenantAffinityConfigNtNtCs1p5UDGgVI4d_4core7default7Default7default
FNDA:34,_RNvXsh_NtNtCs14cwtawSGIg_11miroir_core6config8advancedNtB5_12ShadowConfigNtNtCs1p5UDGgVI4d_4core7default7Default7default
FNDA:0,_RNvXsi_NtNtCs14cwtawSGIg_11miroir_core6config8advancedNtB5_18ShadowTargetConfigNtNtCs1p5UDGgVI4d_4core7default7Default7default
FNDA:34,_RNvXsj_NtNtCs14cwtawSGIg_11miroir_core6config8advancedNtB5_9IlmConfigNtNtCs1p5UDGgVI4d_4core7default7Default7default
FNDA:34,_RNvXsk_NtNtCs14cwtawSGIg_11miroir_core6config8advancedNtB5_18CanaryRunnerConfigNtNtCs1p5UDGgVI4d_4core7default7Default7default
FNDA:34,_RNvXsl_NtNtCs14cwtawSGIg_11miroir_core6config8advancedNtB5_13AdminUiConfigNtNtCs1p5UDGgVI4d_4core7default7Default7default
FNDA:36,_RNvXsm_NtNtCs14cwtawSGIg_11miroir_core6config8advancedNtB5_18AdminUiThemeConfigNtNtCs1p5UDGgVI4d_4core7default7Default7default
FNDA:36,_RNvXsn_NtNtCs14cwtawSGIg_11miroir_core6config8advancedNtB5_21AdminUiFeaturesConfigNtNtCs1p5UDGgVI4d_4core7default7Default7default
FNDA:34,_RNvXso_NtNtCs14cwtawSGIg_11miroir_core6config8advancedNtB5_13ExplainConfigNtNtCs1p5UDGgVI4d_4core7default7Default7default
FNDA:46,_RNvXsp_NtNtCs14cwtawSGIg_11miroir_core6config8advancedNtB5_14SearchUiConfigNtNtCs1p5UDGgVI4d_4core7default7Default7default
FNDA:48,_RNvXsq_NtNtCs14cwtawSGIg_11miroir_core6config8advancedNtB5_18SearchUiAuthConfigNtNtCs1p5UDGgVI4d_4core7default7Default7default
FNDA:50,_RNvXsr_NtNtCs14cwtawSGIg_11miroir_core6config8advancedNtB5_16OAuthProxyConfigNtNtCs1p5UDGgVI4d_4core7default7Default7default
FNDA:60,_RNvXss_NtNtCs14cwtawSGIg_11miroir_core6config8advancedNtB5_23SearchUiRateLimitConfigNtNtCs1p5UDGgVI4d_4core7default7Default7default
FNDA:48,_RNvXst_NtNtCs14cwtawSGIg_11miroir_core6config8advancedNtB5_23SearchUiAnalyticsConfigNtNtCs1p5UDGgVI4d_4core7default7Default7default
FNF:32
FNH:30
DA:22,34
DA:23,34
DA:24,34
DA:25,34
DA:26,34
DA:27,34
DA:28,34
DA:29,34
DA:30,34
DA:31,34
DA:49,34
DA:50,34
DA:51,34
DA:52,34
DA:53,34
DA:54,34
DA:55,34
DA:56,34
DA:57,34
DA:77,34
DA:78,34
DA:79,34
DA:80,34
DA:81,34
DA:82,34
DA:83,34
DA:84,34
DA:85,34
DA:86,34
DA:102,34
DA:103,34
DA:104,34
DA:105,34
DA:106,34
DA:107,34
DA:108,34
DA:126,34
DA:127,34
DA:128,34
DA:129,34
DA:130,34
DA:131,34
DA:132,34
DA:133,34
DA:144,34
DA:145,34
DA:146,34
DA:147,34
DA:148,34
DA:149,34
DA:168,34
DA:169,34
DA:170,34
DA:171,34
DA:172,34
DA:173,34
DA:174,34
DA:175,34
DA:176,34
DA:192,34
DA:193,34
DA:194,34
DA:195,34
DA:196,34
DA:197,34
DA:198,34
DA:218,34
DA:219,34
DA:220,34
DA:221,34
DA:222,34
DA:223,34
DA:224,34
DA:225,34
DA:226,34
DA:227,34
DA:228,34
DA:247,34
DA:248,34
DA:249,34
DA:250,34
DA:251,34
DA:252,34
DA:253,34
DA:254,34
DA:255,34
DA:271,34
DA:272,34
DA:273,34
DA:274,34
DA:275,34
DA:276,34
DA:277,34
DA:294,34
DA:295,34
DA:296,34
DA:297,34
DA:298,34
DA:299,34
DA:300,34
DA:301,34
DA:318,34
DA:319,34
DA:320,34
DA:321,34
DA:322,34
DA:323,34
DA:324,34
DA:325,34
DA:344,34
DA:345,34
DA:346,34
DA:347,34
DA:348,34
DA:349,34
DA:350,34
DA:351,34
DA:352,34
DA:370,46
DA:371,46
DA:372,46
DA:373,46
DA:374,46
DA:375,46
DA:376,46
DA:377,46
DA:378,46
DA:397,0
DA:398,0
DA:399,0
DA:400,0
DA:401,0
DA:402,0
DA:403,0
DA:404,0
DA:405,0
DA:406,0
DA:407,0
DA:422,58
DA:423,58
DA:424,58
DA:425,58
DA:426,58
DA:427,58
DA:428,58
DA:429,58
DA:453,34
DA:454,34
DA:455,34
DA:456,34
DA:457,34
DA:458,34
DA:459,34
DA:460,34
DA:461,34
DA:482,34
DA:483,34
DA:484,34
DA:485,34
DA:486,34
DA:487,34
DA:488,34
DA:489,34
DA:490,34
DA:491,34
DA:508,34
DA:509,34
DA:510,34
DA:511,34
DA:512,34
DA:513,34
DA:514,34
DA:515,34
DA:529,0
DA:530,0
DA:531,0
DA:532,0
DA:533,0
DA:534,0
DA:535,0
DA:536,0
DA:537,0
DA:554,34
DA:555,34
DA:556,34
DA:557,34
DA:558,34
DA:559,34
DA:560,34
DA:561,34
DA:578,34
DA:579,34
DA:580,34
DA:581,34
DA:582,34
DA:583,34
DA:584,34
DA:585,34
DA:609,34
DA:610,34
DA:611,34
DA:612,34
DA:613,34
DA:614,34
DA:615,34
DA:616,34
DA:617,34
DA:618,34
DA:619,34
DA:620,34
DA:621,34
DA:622,34
DA:642,36
DA:643,36
DA:644,36
DA:645,36
DA:646,36
DA:647,36
DA:659,36
DA:660,36
DA:661,36
DA:662,36
DA:663,36
DA:664,36
DA:665,36
DA:681,34
DA:682,34
DA:683,34
DA:684,34
DA:685,34
DA:686,34
DA:687,34
DA:714,46
DA:715,46
DA:716,46
DA:717,46
DA:718,46
DA:719,46
DA:720,46
DA:721,46
DA:722,46
DA:723,46
DA:724,46
DA:725,46
DA:726,46
DA:727,46
DA:728,46
DA:729,46
DA:730,46
DA:731,46
DA:732,46
DA:748,48
DA:749,48
DA:750,48
DA:751,48
DA:752,48
DA:753,48
DA:754,48
DA:755,48
DA:756,48
DA:757,48
DA:770,50
DA:771,50
DA:772,50
DA:773,50
DA:774,50
DA:775,50
DA:776,50
DA:777,50
DA:778,50
DA:779,50
DA:780,50
DA:781,50
DA:782,50
DA:796,60
DA:797,60
DA:798,60
DA:799,60
DA:800,60
DA:801,60
DA:802,60
DA:803,60
DA:815,48
DA:816,48
DA:817,48
DA:818,48
DA:819,48
DA:820,48
BRF:0
BRH:0
LF:288
LH:268
end_of_record
SF:/home/coding/miroir/crates/miroir-core/src/config/load.rs
FN:95,_RNvNtNtNtCs14cwtawSGIg_11miroir_core6config4load5testss_25test_from_yaml_with_nodes
FN:78,_RNvNtNtNtCs14cwtawSGIg_11miroir_core6config4load5testss_27test_from_yaml_valid_config
FN:151,_RNvNtNtNtCs14cwtawSGIg_11miroir_core6config4load5testss_32test_from_yaml_with_all_sections
FN:118,_RNvNtNtNtCs14cwtawSGIg_11miroir_core6config4load5testss_33test_from_yaml_invalid_yaml_fails
FN:140,_RNvNtNtNtCs14cwtawSGIg_11miroir_core6config4load5testss_46test_from_yaml_validation_fails_on_zero_shards
FN:129,_RNvNtNtNtCs14cwtawSGIg_11miroir_core6config4load5testss_49test_from_yaml_validation_fails_on_ha_with_sqlite
FN:25,_RNvNtNtCs14cwtawSGIg_11miroir_core6config4load4load
FN:49,_RNvNtNtCs14cwtawSGIg_11miroir_core6config4load9load_from
FN:67,_RNvNtNtCs14cwtawSGIg_11miroir_core6config4load9from_yaml
FNDA:2,_RNvNtNtNtCs14cwtawSGIg_11miroir_core6config4load5testss_25test_from_yaml_with_nodes
FNDA:2,_RNvNtNtNtCs14cwtawSGIg_11miroir_core6config4load5testss_27test_from_yaml_valid_config
FNDA:2,_RNvNtNtNtCs14cwtawSGIg_11miroir_core6config4load5testss_32test_from_yaml_with_all_sections
FNDA:2,_RNvNtNtNtCs14cwtawSGIg_11miroir_core6config4load5testss_33test_from_yaml_invalid_yaml_fails
FNDA:2,_RNvNtNtNtCs14cwtawSGIg_11miroir_core6config4load5testss_46test_from_yaml_validation_fails_on_zero_shards
FNDA:2,_RNvNtNtNtCs14cwtawSGIg_11miroir_core6config4load5testss_49test_from_yaml_validation_fails_on_ha_with_sqlite
FNDA:0,_RNvNtNtCs14cwtawSGIg_11miroir_core6config4load4load
FNDA:0,_RNvNtNtCs14cwtawSGIg_11miroir_core6config4load9load_from
FNDA:12,_RNvNtNtCs14cwtawSGIg_11miroir_core6config4load9from_yaml
FNF:9
FNH:7
DA:25,0
DA:26,0
DA:28,0
DA:30,0
DA:31,0
DA:32,0
DA:33,0
DA:34,0
DA:37,0
DA:38,0
DA:39,0
DA:40,0
DA:43,0
DA:44,0
DA:45,0
DA:46,0
DA:49,0
DA:50,0
DA:52,0
DA:53,0
DA:55,0
DA:56,0
DA:57,0
DA:58,0
DA:61,0
DA:62,0
DA:63,0
DA:64,0
DA:67,12
DA:68,12
DA:69,10
DA:70,6
DA:71,12
DA:78,2
DA:79,2
DA:80,2
DA:81,2
DA:82,2
DA:83,2
DA:84,2
DA:85,2
DA:86,2
DA:87,2
DA:88,2
DA:89,2
DA:90,2
DA:91,2
DA:92,2
DA:95,2
DA:96,2
DA:97,2
DA:98,2
DA:99,2
DA:100,2
DA:101,2
DA:102,2
DA:103,2
DA:104,2
DA:105,2
DA:106,2
DA:107,2
DA:108,2
DA:109,2
DA:110,2
DA:111,2
DA:112,2
DA:113,2
DA:114,2
DA:115,2
DA:118,2
DA:119,2
DA:120,2
DA:121,2
DA:122,2
DA:123,2
DA:124,2
DA:125,2
DA:126,2
DA:129,2
DA:130,2
DA:131,2
DA:132,2
DA:133,2
DA:134,2
DA:135,2
DA:136,2
DA:137,2
DA:140,2
DA:141,2
DA:142,2
DA:143,2
DA:144,2
DA:145,2
DA:146,2
DA:147,2
DA:148,2
DA:151,2
DA:152,2
DA:153,2
DA:154,2
DA:155,2
DA:156,2
DA:157,2
DA:158,2
DA:159,2
DA:160,2
DA:161,2
DA:162,2
DA:163,2
DA:164,2
DA:165,2
DA:166,2
DA:167,2
DA:168,2
DA:169,2
DA:170,2
DA:171,2
DA:172,2
DA:173,2
DA:174,2
DA:175,2
DA:176,2
DA:177,2
DA:178,2
DA:179,2
DA:180,2
DA:181,2
DA:182,2
DA:183,2
DA:184,2
DA:185,2
DA:186,2
DA:187,2
DA:188,2
DA:189,2
DA:190,2
DA:191,2
DA:192,2
DA:193,2
DA:194,2
BRF:0
BRH:0
LF:140
LH:112
end_of_record
SF:/home/coding/miroir/crates/miroir-core/src/config/validate.rs
FN:3,_RNvNtNtCs14cwtawSGIg_11miroir_core6config8validate8validate
FNDA:22,_RNvNtNtCs14cwtawSGIg_11miroir_core6config8validate8validate
FNF:1
FNH:1
DA:3,22
DA:5,22
DA:6,4
DA:7,4
DA:8,4
DA:9,18
DA:12,18
DA:13,0
DA:14,0
DA:15,0
DA:16,0
DA:17,18
DA:20,18
DA:21,32
DA:22,16
DA:23,2
DA:24,2
DA:25,2
DA:26,2
DA:27,2
DA:28,2
DA:29,2
DA:30,14
DA:32,0
DA:35,16
DA:36,28
DA:37,14
DA:38,2
DA:39,2
DA:40,2
DA:41,2
DA:42,12
DA:46,14
DA:47,0
DA:48,0
DA:49,0
DA:50,14
DA:53,14
DA:54,14
DA:55,14
DA:56,14
DA:57,2
DA:58,2
DA:59,2
DA:60,12
DA:61,0
DA:64,12
DA:65,2
DA:66,2
DA:67,2
DA:68,10
DA:71,10
DA:72,10
DA:73,6
DA:75,0
DA:76,0
DA:77,0
DA:78,10
DA:81,10
DA:82,0
DA:83,0
DA:84,0
DA:85,10
DA:88,10
DA:89,10
DA:90,0
DA:91,0
DA:92,0
DA:93,0
DA:94,0
DA:95,0
DA:96,0
DA:97,0
DA:99,10
DA:100,0
DA:101,0
DA:102,0
DA:103,0
DA:104,0
DA:105,0
DA:106,0
DA:107,0
DA:108,0
DA:110,0
DA:113,10
DA:114,10
DA:115,0
DA:116,0
DA:117,0
DA:118,0
DA:119,0
DA:120,0
DA:122,0
DA:125,10
DA:126,0
DA:127,0
DA:128,0
DA:129,10
DA:132,10
DA:133,2
DA:134,8
DA:137,8
DA:138,0
DA:139,0
DA:140,0
DA:141,8
DA:143,8
DA:144,22
BRF:0
BRH:0
LF:108
LH:62
end_of_record
SF:/home/coding/miroir/crates/miroir-core/src/merger.rs
FN:242,_RNvMs1_NtCs14cwtawSGIg_11miroir_core6mergerNtB5_12HitWithScore14descending_cmp
FN:364,_RNvNtCs14cwtawSGIg_11miroir_core6merger12merge_facets
FN:70,_RNvNtCs14cwtawSGIg_11miroir_core6merger5merge
FN:121,_RNvXNvNtCs14cwtawSGIg_11miroir_core6merger5mergeNtB2_12AscendingHitNtNtCs1p5UDGgVI4d_4core3cmp10PartialOrd11partial_cmp
FN:321,_RNvXs3_NtCs14cwtawSGIg_11miroir_core6mergerNtB5_10MergerImplNtB5_6Merger5merge
FN:127,_RNvXs_NvNtCs14cwtawSGIg_11miroir_core6merger5mergeNtB4_12AscendingHitNtNtCs1p5UDGgVI4d_4core3cmp3Ord3cmp
FN:434,_RNvNtNtCs14cwtawSGIg_11miroir_core6merger5tests10create_hit
FN:442,_RNvNtNtCs14cwtawSGIg_11miroir_core6merger5tests21create_shard_response
FN:811,_RNvNtNtCs14cwtawSGIg_11miroir_core6merger5testss_30test_offset_exceeds_total_hits
FN:615,_RNvNtNtCs14cwtawSGIg_11miroir_core6merger5testss_32test_estimated_total_hits_summed
FN:837,_RNvNtNtCs14cwtawSGIg_11miroir_core6merger5testss_32test_tie_breaking_by_primary_key
FN:456,_RNvNtNtCs14cwtawSGIg_11miroir_core6merger5testss_33test_global_sort_by_ranking_score
FN:824,_RNvNtNtCs14cwtawSGIg_11miroir_core6merger5testss_33test_limit_exceeds_available_hits
FN:540,_RNvNtNtCs14cwtawSGIg_11miroir_core6merger5testss_33test_miroir_shard_always_stripped
FN:696,_RNvNtNtCs14cwtawSGIg_11miroir_core6merger5testss_34test_not_degraded_when_all_succeed
FN:675,_RNvNtNtCs14cwtawSGIg_11miroir_core6merger5testss_35test_degraded_flag_when_shard_fails
FN:955,_RNvNtNtCs14cwtawSGIg_11miroir_core6merger5testss_37test_strip_all_miroir_reserved_fields
FN:710,_RNvNtNtCs14cwtawSGIg_11miroir_core6merger5testss_38test_empty_shards_returns_empty_result
FN:554,_RNvNtNtCs14cwtawSGIg_11miroir_core6merger5testss_38test_facet_counts_summed_across_shards
FN:630,_RNvNtNtCs14cwtawSGIg_11miroir_core6merger5testss_38test_processing_time_max_across_shards
FN:901,_RNvNtNtCs14cwtawSGIg_11miroir_core6merger5testss_41test_binary_heap_efficiency_large_fan_out
FN:488,_RNvNtNtCs14cwtawSGIg_11miroir_core6merger5testss_41test_offset_and_limit_applied_after_merge
FN:525,_RNvNtNtCs14cwtawSGIg_11miroir_core6merger5testss_42test_ranking_score_included_when_requested
FN:921,_RNvNtNtCs14cwtawSGIg_11miroir_core6merger5testss_43test_offset_limit_pagination_reconstruction
FN:722,_RNvNtNtCs14cwtawSGIg_11miroir_core6merger5testss_45test_facet_keys_unique_to_one_shard_preserved
FN:980,_RNvNtNtCs14cwtawSGIg_11miroir_core6merger5testss_46test_facet_filter_only_merges_requested_facets
FN:510,_RNvNtNtCs14cwtawSGIg_11miroir_core6merger5testss_46test_ranking_score_stripped_when_not_requested
FN:857,_RNvNtNtCs14cwtawSGIg_11miroir_core6merger5testss_46test_stable_serialization_same_input_same_json
FN:772,_RNvNtNtCs14cwtawSGIg_11miroir_core6merger5testss_50test_missing_facet_distribution_handled_gracefully
FN:399,_RNCNCNvNtCs14cwtawSGIg_11miroir_core6merger12merge_facetss_00B7_
FN:179,_RNCNCNvNtCs14cwtawSGIg_11miroir_core6merger5merges5_00B7_
FN:199,_RNCNCNvNtCs14cwtawSGIg_11miroir_core6merger5merges6_00B7_
FN:205,_RNCNCNvNtCs14cwtawSGIg_11miroir_core6merger5merges7_00B7_
FN:371,_RNCNvNtCs14cwtawSGIg_11miroir_core6merger12merge_facets0B5_
FN:396,_RNCNvNtCs14cwtawSGIg_11miroir_core6merger12merge_facetss_0B5_
FN:89,_RNCNvNtCs14cwtawSGIg_11miroir_core6merger5merges0_0B5_
FN:94,_RNCNvNtCs14cwtawSGIg_11miroir_core6merger5merges1_0B5_
FN:161,_RNCNvNtCs14cwtawSGIg_11miroir_core6merger5merges3_0B5_
FN:165,_RNCNvNtCs14cwtawSGIg_11miroir_core6merger5merges4_0B5_
FN:174,_RNCNvNtCs14cwtawSGIg_11miroir_core6merger5merges5_0B5_
FN:199,_RNCNvNtCs14cwtawSGIg_11miroir_core6merger5merges6_0B5_
FN:205,_RNCNvNtCs14cwtawSGIg_11miroir_core6merger5merges7_0B5_
FN:85,_RNCNvNtCs14cwtawSGIg_11miroir_core6merger5merges_0B5_
FN:332,_RNCNvXs3_NtCs14cwtawSGIg_11miroir_core6mergerNtB7_10MergerImplNtB7_6Merger5merge0B9_
FN:948,_RNCNvNtNtCs14cwtawSGIg_11miroir_core6merger5testss_43test_offset_limit_pagination_reconstruction0B7_
FN:227,_RNvXNtCs14cwtawSGIg_11miroir_core6mergerNtB2_12HitWithScoreNtNtCs1p5UDGgVI4d_4core3cmp9PartialEq2eq
FN:235,_RNvXs0_NtCs14cwtawSGIg_11miroir_core6mergerNtB5_12HitWithScoreNtNtCs1p5UDGgVI4d_4core3cmp10PartialOrd11partial_cmp
FN:255,_RNvXs2_NtCs14cwtawSGIg_11miroir_core6mergerNtB5_12HitWithScoreNtNtCs1p5UDGgVI4d_4core3cmp3Ord3cmp
FN:413,_RNvXs4_NtCs14cwtawSGIg_11miroir_core6mergerNtB5_10StubMergerNtB5_6Merger5merge
FNDA:936,_RNvMs1_NtCs14cwtawSGIg_11miroir_core6mergerNtB5_12HitWithScore14descending_cmp
FNDA:54,_RNvNtCs14cwtawSGIg_11miroir_core6merger12merge_facets
FNDA:54,_RNvNtCs14cwtawSGIg_11miroir_core6merger5merge
FNDA:968,_RNvXNvNtCs14cwtawSGIg_11miroir_core6merger5mergeNtB2_12AscendingHitNtNtCs1p5UDGgVI4d_4core3cmp10PartialOrd11partial_cmp
FNDA:48,_RNvXs3_NtCs14cwtawSGIg_11miroir_core6mergerNtB5_10MergerImplNtB5_6Merger5merge
FNDA:968,_RNvXs_NvNtCs14cwtawSGIg_11miroir_core6merger5mergeNtB4_12AscendingHitNtNtCs1p5UDGgVI4d_4core3cmp3Ord3cmp
FNDA:348,_RNvNtNtCs14cwtawSGIg_11miroir_core6merger5tests10create_hit
FNDA:46,_RNvNtNtCs14cwtawSGIg_11miroir_core6merger5tests21create_shard_response
FNDA:2,_RNvNtNtCs14cwtawSGIg_11miroir_core6merger5testss_30test_offset_exceeds_total_hits
FNDA:2,_RNvNtNtCs14cwtawSGIg_11miroir_core6merger5testss_32test_estimated_total_hits_summed
FNDA:2,_RNvNtNtCs14cwtawSGIg_11miroir_core6merger5testss_32test_tie_breaking_by_primary_key
FNDA:2,_RNvNtNtCs14cwtawSGIg_11miroir_core6merger5testss_33test_global_sort_by_ranking_score
FNDA:2,_RNvNtNtCs14cwtawSGIg_11miroir_core6merger5testss_33test_limit_exceeds_available_hits
FNDA:2,_RNvNtNtCs14cwtawSGIg_11miroir_core6merger5testss_33test_miroir_shard_always_stripped
FNDA:2,_RNvNtNtCs14cwtawSGIg_11miroir_core6merger5testss_34test_not_degraded_when_all_succeed
FNDA:2,_RNvNtNtCs14cwtawSGIg_11miroir_core6merger5testss_35test_degraded_flag_when_shard_fails
FNDA:2,_RNvNtNtCs14cwtawSGIg_11miroir_core6merger5testss_37test_strip_all_miroir_reserved_fields
FNDA:2,_RNvNtNtCs14cwtawSGIg_11miroir_core6merger5testss_38test_empty_shards_returns_empty_result
FNDA:2,_RNvNtNtCs14cwtawSGIg_11miroir_core6merger5testss_38test_facet_counts_summed_across_shards
FNDA:2,_RNvNtNtCs14cwtawSGIg_11miroir_core6merger5testss_38test_processing_time_max_across_shards
FNDA:2,_RNvNtNtCs14cwtawSGIg_11miroir_core6merger5testss_41test_binary_heap_efficiency_large_fan_out
FNDA:2,_RNvNtNtCs14cwtawSGIg_11miroir_core6merger5testss_41test_offset_and_limit_applied_after_merge
FNDA:2,_RNvNtNtCs14cwtawSGIg_11miroir_core6merger5testss_42test_ranking_score_included_when_requested
FNDA:2,_RNvNtNtCs14cwtawSGIg_11miroir_core6merger5testss_43test_offset_limit_pagination_reconstruction
FNDA:2,_RNvNtNtCs14cwtawSGIg_11miroir_core6merger5testss_45test_facet_keys_unique_to_one_shard_preserved
FNDA:2,_RNvNtNtCs14cwtawSGIg_11miroir_core6merger5testss_46test_facet_filter_only_merges_requested_facets
FNDA:2,_RNvNtNtCs14cwtawSGIg_11miroir_core6merger5testss_46test_ranking_score_stripped_when_not_requested
FNDA:2,_RNvNtNtCs14cwtawSGIg_11miroir_core6merger5testss_46test_stable_serialization_same_input_same_json
FNDA:2,_RNvNtNtCs14cwtawSGIg_11miroir_core6merger5testss_50test_missing_facet_distribution_handled_gracefully
FNDA:44,_RNCNCNvNtCs14cwtawSGIg_11miroir_core6merger12merge_facetss_00B7_
FNDA:784,_RNCNCNvNtCs14cwtawSGIg_11miroir_core6merger5merges5_00B7_
FNDA:74,_RNCNCNvNtCs14cwtawSGIg_11miroir_core6merger5merges6_00B7_
FNDA:74,_RNCNCNvNtCs14cwtawSGIg_11miroir_core6merger5merges7_00B7_
FNDA:66,_RNCNvNtCs14cwtawSGIg_11miroir_core6merger12merge_facets0B5_
FNDA:18,_RNCNvNtCs14cwtawSGIg_11miroir_core6merger12merge_facetss_0B5_
FNDA:850,_RNCNvNtCs14cwtawSGIg_11miroir_core6merger5merges0_0B5_
FNDA:850,_RNCNvNtCs14cwtawSGIg_11miroir_core6merger5merges1_0B5_
FNDA:500,_RNCNvNtCs14cwtawSGIg_11miroir_core6merger5merges3_0B5_
FNDA:436,_RNCNvNtCs14cwtawSGIg_11miroir_core6merger5merges4_0B5_
FNDA:260,_RNCNvNtCs14cwtawSGIg_11miroir_core6merger5merges5_0B5_
FNDA:74,_RNCNvNtCs14cwtawSGIg_11miroir_core6merger5merges6_0B5_
FNDA:74,_RNCNvNtCs14cwtawSGIg_11miroir_core6merger5merges7_0B5_
FNDA:74,_RNCNvNtCs14cwtawSGIg_11miroir_core6merger5merges_0B5_
FNDA:66,_RNCNvXs3_NtCs14cwtawSGIg_11miroir_core6mergerNtB7_10MergerImplNtB7_6Merger5merge0B9_
FNDA:100,_RNCNvNtNtCs14cwtawSGIg_11miroir_core6merger5testss_43test_offset_limit_pagination_reconstruction0B7_
FNDA:0,_RNvXNtCs14cwtawSGIg_11miroir_core6mergerNtB2_12HitWithScoreNtNtCs1p5UDGgVI4d_4core3cmp9PartialEq2eq
FNDA:0,_RNvXs0_NtCs14cwtawSGIg_11miroir_core6mergerNtB5_12HitWithScoreNtNtCs1p5UDGgVI4d_4core3cmp10PartialOrd11partial_cmp
FNDA:0,_RNvXs2_NtCs14cwtawSGIg_11miroir_core6mergerNtB5_12HitWithScoreNtNtCs1p5UDGgVI4d_4core3cmp3Ord3cmp
FNDA:0,_RNvXs4_NtCs14cwtawSGIg_11miroir_core6mergerNtB5_10StubMergerNtB5_6Merger5merge
FNF:49
FNH:45
DA:70,54
DA:72,54
DA:73,54
DA:74,54
DA:75,54
DA:76,54
DA:79,54
DA:82,54
DA:84,128
DA:85,74
DA:86,924
DA:87,850
DA:88,850
DA:89,850
DA:90,850
DA:92,850
DA:93,850
DA:94,850
DA:95,850
DA:96,850
DA:98,850
DA:99,850
DA:100,850
DA:101,850
DA:102,850
DA:104,0
DA:108,54
DA:109,54
DA:121,968
DA:122,968
DA:123,968
DA:127,968
DA:129,968
DA:131,0
DA:133,968
DA:135,968
DA:140,6
DA:142,406
DA:143,400
DA:144,80
DA:145,80
DA:147,320
DA:150,320
DA:151,180
DA:152,180
DA:153,180
DA:154,180
DA:155,0
DA:160,6
DA:161,500
DA:162,6
DA:165,436
DA:166,48
DA:170,54
DA:171,54
DA:172,54
DA:173,54
DA:174,260
DA:175,260
DA:178,260
DA:179,784
DA:180,0
DA:183,260
DA:184,252
DA:185,252
DA:186,252
DA:187,8
DA:189,260
DA:190,260
DA:191,54
DA:194,54
DA:197,54
DA:198,54
DA:199,74
DA:200,54
DA:203,54
DA:204,54
DA:205,74
DA:206,54
DA:207,54
DA:209,54
DA:210,54
DA:211,54
DA:212,54
DA:213,54
DA:214,54
DA:215,54
DA:216,54
DA:227,0
DA:228,0
DA:229,0
DA:235,0
DA:236,0
DA:237,0
DA:242,936
DA:244,936
DA:247,6
DA:249,930
DA:251,936
DA:255,0
DA:257,0
DA:261,0
DA:263,0
DA:265,0
DA:321,48
DA:322,48
DA:323,48
DA:324,48
DA:325,48
DA:326,48
DA:327,48
DA:329,48
DA:330,48
DA:331,48
DA:332,66
DA:333,66
DA:334,66
DA:335,48
DA:338,48
DA:339,48
DA:340,48
DA:341,48
DA:342,48
DA:343,48
DA:344,48
DA:346,48
DA:348,48
DA:349,48
DA:350,48
DA:351,48
DA:352,48
DA:353,48
DA:354,48
DA:355,48
DA:364,54
DA:365,54
DA:367,128
DA:368,74
DA:369,74
DA:370,74
DA:371,74
DA:373,100
DA:375,34
DA:376,4
DA:377,2
DA:378,2
DA:379,30
DA:381,32
DA:382,32
DA:384,88
DA:385,56
DA:386,56
DA:387,56
DA:388,0
DA:390,8
DA:394,54
DA:395,54
DA:396,54
DA:397,18
DA:398,18
DA:399,44
DA:400,18
DA:401,18
DA:402,18
DA:403,54
DA:405,54
DA:406,54
DA:413,0
DA:414,0
DA:415,0
DA:416,0
DA:417,0
DA:418,0
DA:419,0
DA:420,0
DA:421,0
DA:422,0
DA:423,0
DA:424,0
DA:425,0
DA:426,0
DA:427,0
DA:434,348
DA:435,348
DA:436,348
DA:437,348
DA:438,348
DA:440,348
DA:442,46
DA:443,46
DA:444,46
DA:445,46
DA:446,46
DA:447,46
DA:448,46
DA:449,46
DA:450,46
DA:451,46
DA:452,46
DA:453,46
DA:456,2
DA:457,2
DA:459,2
DA:460,2
DA:461,2
DA:462,2
DA:464,2
DA:465,2
DA:466,2
DA:467,2
DA:470,2
DA:471,2
DA:472,2
DA:475,2
DA:478,2
DA:479,2
DA:480,2
DA:481,2
DA:482,2
DA:483,2
DA:484,2
DA:485,2
DA:488,2
DA:489,2
DA:491,2
DA:492,2
DA:493,2
DA:494,2
DA:495,2
DA:496,2
DA:499,2
DA:501,2
DA:504,2
DA:505,2
DA:506,2
DA:507,2
DA:510,2
DA:511,2
DA:513,2
DA:515,2
DA:517,2
DA:520,2
DA:521,2
DA:522,2
DA:525,2
DA:526,2
DA:528,2
DA:530,2
DA:532,2
DA:535,2
DA:536,2
DA:537,2
DA:540,2
DA:541,2
DA:543,2
DA:545,2
DA:547,2
DA:550,2
DA:551,2
DA:554,2
DA:555,2
DA:557,2
DA:558,2
DA:559,2
DA:560,2
DA:561,2
DA:562,2
DA:563,2
DA:564,2
DA:566,2
DA:567,2
DA:572,2
DA:573,2
DA:574,2
DA:575,2
DA:576,2
DA:577,2
DA:578,2
DA:579,2
DA:581,2
DA:582,2
DA:583,2
DA:588,2
DA:589,2
DA:590,2
DA:591,2
DA:592,2
DA:593,2
DA:594,2
DA:595,2
DA:596,2
DA:597,2
DA:598,2
DA:601,2
DA:603,2
DA:604,2
DA:605,2
DA:606,2
DA:607,2
DA:609,2
DA:610,2
DA:611,2
DA:612,2
DA:615,2
DA:616,2
DA:618,2
DA:619,2
DA:620,2
DA:621,2
DA:624,2
DA:626,2
DA:627,2
DA:630,2
DA:631,2
DA:633,2
DA:634,2
DA:635,2
DA:636,2
DA:639,2
DA:640,2
DA:641,2
DA:642,2
DA:645,2
DA:646,2
DA:647,2
DA:648,2
DA:651,2
DA:652,2
DA:653,2
DA:654,2
DA:655,2
DA:656,2
DA:657,2
DA:658,2
DA:659,2
DA:660,2
DA:661,2
DA:662,2
DA:663,2
DA:664,2
DA:665,2
DA:666,2
DA:669,2
DA:671,2
DA:672,2
DA:675,2
DA:676,2
DA:678,2
DA:680,2
DA:681,2
DA:682,2
DA:683,2
DA:684,2
DA:685,2
DA:686,2
DA:689,2
DA:691,2
DA:692,2
DA:693,2
DA:696,2
DA:697,2
DA:699,2
DA:700,2
DA:701,2
DA:704,2
DA:706,2
DA:707,2
DA:710,2
DA:711,2
DA:713,2
DA:715,2
DA:716,2
DA:717,2
DA:718,2
DA:719,2
DA:722,2
DA:723,2
DA:725,2
DA:726,2
DA:727,2
DA:728,2
DA:729,2
DA:730,2
DA:731,2
DA:732,2
DA:737,2
DA:738,2
DA:739,2
DA:740,2
DA:741,2
DA:742,2
DA:743,2
DA:744,2
DA:749,2
DA:750,2
DA:751,2
DA:752,2
DA:753,2
DA:754,2
DA:755,2
DA:756,2
DA:757,2
DA:758,2
DA:759,2
DA:762,2
DA:764,2
DA:765,2
DA:766,2
DA:767,2
DA:768,2
DA:769,2
DA:772,2
DA:773,2
DA:775,2
DA:776,2
DA:777,2
DA:778,2
DA:779,2
DA:780,2
DA:784,2
DA:785,2
DA:786,2
DA:787,2
DA:790,2
DA:791,2
DA:792,2
DA:793,2
DA:794,2
DA:795,2
DA:796,2
DA:797,2
DA:798,2
DA:799,2
DA:800,2
DA:803,2
DA:806,2
DA:807,2
DA:808,2
DA:811,2
DA:812,2
DA:814,2
DA:816,2
DA:818,2
DA:820,2
DA:821,2
DA:824,2
DA:825,2
DA:827,2
DA:829,2
DA:831,2
DA:833,2
DA:834,2
DA:837,2
DA:838,2
DA:840,2
DA:841,2
DA:842,2
DA:843,2
DA:846,2
DA:848,2
DA:851,2
DA:852,2
DA:853,2
DA:854,2
DA:857,2
DA:858,2
DA:859,2
DA:860,2
DA:861,2
DA:862,2
DA:863,2
DA:864,2
DA:868,2
DA:869,2
DA:870,2
DA:871,2
DA:872,2
DA:873,2
DA:874,2
DA:878,2
DA:879,2
DA:880,2
DA:881,2
DA:882,2
DA:883,2
DA:884,2
DA:885,2
DA:886,2
DA:887,2
DA:889,2
DA:890,2
DA:893,2
DA:894,2
DA:897,2
DA:898,2
DA:901,2
DA:902,2
DA:905,2
DA:906,202
DA:907,200
DA:908,200
DA:910,2
DA:912,2
DA:915,2
DA:916,2
DA:917,2
DA:918,2
DA:921,2
DA:922,2
DA:925,2
DA:926,102
DA:927,100
DA:928,100
DA:931,2
DA:932,2
DA:935,2
DA:936,12
DA:937,10
DA:938,10
DA:939,110
DA:940,100
DA:941,100
DA:945,2
DA:946,2
DA:947,2
DA:948,100
DA:949,2
DA:951,2
DA:952,2
DA:955,2
DA:956,2
DA:958,2
DA:959,2
DA:960,2
DA:961,2
DA:962,2
DA:963,2
DA:966,2
DA:968,2
DA:971,2
DA:973,2
DA:974,2
DA:976,2
DA:977,2
DA:980,2
DA:981,2
DA:982,2
DA:983,2
DA:986,2
DA:987,2
DA:988,2
DA:989,2
DA:990,2
DA:991,2
DA:992,2
DA:993,2
DA:994,2
DA:995,2
DA:996,2
DA:997,2
DA:998,2
DA:999,2
DA:1000,2
DA:1002,2
DA:1005,2
DA:1006,2
DA:1007,2
BRF:0
BRH:0
LF:582
LH:551
end_of_record
SF:/home/coding/miroir/crates/miroir-core/src/migration.rs
FN:437,_RNvMs4_NtCs14cwtawSGIg_11miroir_core9migrationNtB5_20MigrationCoordinator10is_drained
FN:377,_RNvMs4_NtCs14cwtawSGIg_11miroir_core9migrationNtB5_20MigrationCoordinator13begin_cutover
FN:444,_RNvMs4_NtCs14cwtawSGIg_11miroir_core9migrationNtB5_20MigrationCoordinator14complete_drain
FN:599,_RNvMs4_NtCs14cwtawSGIg_11miroir_core9migrationNtB5_20MigrationCoordinator15activate_shards
FN:287,_RNvMs4_NtCs14cwtawSGIg_11miroir_core9migrationNtB5_20MigrationCoordinator15begin_migration
FN:279,_RNvMs4_NtCs14cwtawSGIg_11miroir_core9migrationNtB5_20MigrationCoordinator15validate_safety
FN:319,_RNvMs4_NtCs14cwtawSGIg_11miroir_core9migrationNtB5_20MigrationCoordinator16begin_dual_write
FN:623,_RNvMs4_NtCs14cwtawSGIg_11miroir_core9migrationNtB5_20MigrationCoordinator16complete_cleanup
FN:414,_RNvMs4_NtCs14cwtawSGIg_11miroir_core9migrationNtB5_20MigrationCoordinator18register_in_flight
FN:647,_RNvMs4_NtCs14cwtawSGIg_11miroir_core9migrationNtB5_20MigrationCoordinator20is_dual_write_active
FN:556,_RNvMs4_NtCs14cwtawSGIg_11miroir_core9migrationNtB5_20MigrationCoordinator20shard_delta_complete
FN:524,_RNvMs4_NtCs14cwtawSGIg_11miroir_core9migrationNtB5_20MigrationCoordinator24collect_delta_candidates
FN:337,_RNvMs4_NtCs14cwtawSGIg_11miroir_core9migrationNtB5_20MigrationCoordinator24shard_migration_complete
FN:268,_RNvMs4_NtCs14cwtawSGIg_11miroir_core9migrationNtB5_20MigrationCoordinator3new
FN:642,_RNvMs4_NtCs14cwtawSGIg_11miroir_core9migrationNtB5_20MigrationCoordinator9get_state
FN:93,_RNvXs1_NtCs14cwtawSGIg_11miroir_core9migrationNtB5_19ShardMigrationStateNtNtCs1p5UDGgVI4d_4core3fmt7Display3fmt
FN:153,_RNvXs2_NtCs14cwtawSGIg_11miroir_core9migrationNtB5_14MigrationPhaseNtNtCs1p5UDGgVI4d_4core3fmt7Display3fmt
FN:216,_RNvXs3_NtCs14cwtawSGIg_11miroir_core9migrationNtB5_15MigrationConfigNtNtCs1p5UDGgVI4d_4core7default7Default7default
FN:667,_RNvNtNtCs14cwtawSGIg_11miroir_core9migration5tests4node
FN:671,_RNvNtNtCs14cwtawSGIg_11miroir_core9migration5tests5shard
FN:806,_RNvNtNtCs14cwtawSGIg_11miroir_core9migration5testss_24test_dual_write_tracking
FN:772,_RNvNtNtCs14cwtawSGIg_11miroir_core9migration5testss_33test_drain_timeout_blocks_cutover
FN:676,_RNvNtNtCs14cwtawSGIg_11miroir_core9migration5testss_33test_safe_cutover_with_delta_pass
FN:745,_RNvNtNtCs14cwtawSGIg_11miroir_core9migration5testss_46test_skip_delta_pass_allowed_with_anti_entropy
FN:728,_RNvNtNtCs14cwtawSGIg_11miroir_core9migration5testss_48test_unsafe_cutover_refused_without_anti_entropy
FN:440,_RNCNvMs4_NtCs14cwtawSGIg_11miroir_core9migrationNtB7_20MigrationCoordinator10is_drained0B9_
FN:465,_RNCNvMs4_NtCs14cwtawSGIg_11miroir_core9migrationNtB7_20MigrationCoordinator14complete_drain0B9_
FN:515,_RNCNvMs4_NtCs14cwtawSGIg_11miroir_core9migrationNtB7_20MigrationCoordinator14complete_drains0_0B9_
FN:504,_RNCNvMs4_NtCs14cwtawSGIg_11miroir_core9migrationNtB7_20MigrationCoordinator14complete_drains_0B9_
FN:300,_RNCNvMs4_NtCs14cwtawSGIg_11miroir_core9migrationNtB7_20MigrationCoordinator15begin_migration0B9_
FN:648,_RNCNvMs4_NtCs14cwtawSGIg_11miroir_core9migrationNtB7_20MigrationCoordinator20is_dual_write_active0B9_
FN:566,_RNCNvMs4_NtCs14cwtawSGIg_11miroir_core9migrationNtB7_20MigrationCoordinator20shard_delta_complete0B9_
FN:588,_RNCNvMs4_NtCs14cwtawSGIg_11miroir_core9migrationNtB7_20MigrationCoordinator20shard_delta_completes_0B9_
FN:347,_RNCNvMs4_NtCs14cwtawSGIg_11miroir_core9migrationNtB7_20MigrationCoordinator24shard_migration_complete0B9_
FN:367,_RNCNvMs4_NtCs14cwtawSGIg_11miroir_core9migrationNtB7_20MigrationCoordinator24shard_migration_completes_0B9_
FN:193,_RINvNtNtCs14cwtawSGIg_11miroir_core9migration13instant_serde11deserializepEB6_
FN:186,_RINvNtNtCs14cwtawSGIg_11miroir_core9migration13instant_serde9serializepEB6_
FN:428,_RNvMs4_NtCs14cwtawSGIg_11miroir_core9migrationNtB5_20MigrationCoordinator10fail_write
FN:658,_RNvMs4_NtCs14cwtawSGIg_11miroir_core9migrationNtB5_20MigrationCoordinator6config
FN:419,_RNvMs4_NtCs14cwtawSGIg_11miroir_core9migrationNtB5_20MigrationCoordinator9ack_write
FN:39,_RNvXNtCs14cwtawSGIg_11miroir_core9migrationNtB2_11MigrationIdNtNtCs1p5UDGgVI4d_4core3fmt7Display3fmt
FN:59,_RNvXs0_NtCs14cwtawSGIg_11miroir_core9migrationNtB5_7ShardIdNtNtCs1p5UDGgVI4d_4core3fmt7Display3fmt
FN:49,_RNvXs_NtCs14cwtawSGIg_11miroir_core9migrationNtB4_6NodeIdNtNtCs1p5UDGgVI4d_4core3fmt7Display3fmt
FNDA:6,_RNvMs4_NtCs14cwtawSGIg_11miroir_core9migrationNtB5_20MigrationCoordinator10is_drained
FNDA:6,_RNvMs4_NtCs14cwtawSGIg_11miroir_core9migrationNtB5_20MigrationCoordinator13begin_cutover
FNDA:6,_RNvMs4_NtCs14cwtawSGIg_11miroir_core9migrationNtB5_20MigrationCoordinator14complete_drain
FNDA:4,_RNvMs4_NtCs14cwtawSGIg_11miroir_core9migrationNtB5_20MigrationCoordinator15activate_shards
FNDA:10,_RNvMs4_NtCs14cwtawSGIg_11miroir_core9migrationNtB5_20MigrationCoordinator15begin_migration
FNDA:10,_RNvMs4_NtCs14cwtawSGIg_11miroir_core9migrationNtB5_20MigrationCoordinator15validate_safety
FNDA:8,_RNvMs4_NtCs14cwtawSGIg_11miroir_core9migrationNtB5_20MigrationCoordinator16begin_dual_write
FNDA:4,_RNvMs4_NtCs14cwtawSGIg_11miroir_core9migrationNtB5_20MigrationCoordinator16complete_cleanup
FNDA:4,_RNvMs4_NtCs14cwtawSGIg_11miroir_core9migrationNtB5_20MigrationCoordinator18register_in_flight
FNDA:6,_RNvMs4_NtCs14cwtawSGIg_11miroir_core9migrationNtB5_20MigrationCoordinator20is_dual_write_active
FNDA:4,_RNvMs4_NtCs14cwtawSGIg_11miroir_core9migrationNtB5_20MigrationCoordinator20shard_delta_complete
FNDA:4,_RNvMs4_NtCs14cwtawSGIg_11miroir_core9migrationNtB5_20MigrationCoordinator24collect_delta_candidates
FNDA:10,_RNvMs4_NtCs14cwtawSGIg_11miroir_core9migrationNtB5_20MigrationCoordinator24shard_migration_complete
FNDA:10,_RNvMs4_NtCs14cwtawSGIg_11miroir_core9migrationNtB5_20MigrationCoordinator3new
FNDA:6,_RNvMs4_NtCs14cwtawSGIg_11miroir_core9migrationNtB5_20MigrationCoordinator9get_state
FNDA:0,_RNvXs1_NtCs14cwtawSGIg_11miroir_core9migrationNtB5_19ShardMigrationStateNtNtCs1p5UDGgVI4d_4core3fmt7Display3fmt
FNDA:0,_RNvXs2_NtCs14cwtawSGIg_11miroir_core9migrationNtB5_14MigrationPhaseNtNtCs1p5UDGgVI4d_4core3fmt7Display3fmt
FNDA:16,_RNvXs3_NtCs14cwtawSGIg_11miroir_core9migrationNtB5_15MigrationConfigNtNtCs1p5UDGgVI4d_4core7default7Default7default
FNDA:34,_RNvNtNtCs14cwtawSGIg_11miroir_core9migration5tests4node
FNDA:36,_RNvNtNtCs14cwtawSGIg_11miroir_core9migration5tests5shard
FNDA:2,_RNvNtNtCs14cwtawSGIg_11miroir_core9migration5testss_24test_dual_write_tracking
FNDA:2,_RNvNtNtCs14cwtawSGIg_11miroir_core9migration5testss_33test_drain_timeout_blocks_cutover
FNDA:2,_RNvNtNtCs14cwtawSGIg_11miroir_core9migration5testss_33test_safe_cutover_with_delta_pass
FNDA:2,_RNvNtNtCs14cwtawSGIg_11miroir_core9migration5testss_46test_skip_delta_pass_allowed_with_anti_entropy
FNDA:2,_RNvNtNtCs14cwtawSGIg_11miroir_core9migration5testss_48test_unsafe_cutover_refused_without_anti_entropy
FNDA:4,_RNCNvMs4_NtCs14cwtawSGIg_11miroir_core9migrationNtB7_20MigrationCoordinator10is_drained0B9_
FNDA:2,_RNCNvMs4_NtCs14cwtawSGIg_11miroir_core9migrationNtB7_20MigrationCoordinator14complete_drain0B9_
FNDA:2,_RNCNvMs4_NtCs14cwtawSGIg_11miroir_core9migrationNtB7_20MigrationCoordinator14complete_drains0_0B9_
FNDA:2,_RNCNvMs4_NtCs14cwtawSGIg_11miroir_core9migrationNtB7_20MigrationCoordinator14complete_drains_0B9_
FNDA:10,_RNCNvMs4_NtCs14cwtawSGIg_11miroir_core9migrationNtB7_20MigrationCoordinator15begin_migration0B9_
FNDA:6,_RNCNvMs4_NtCs14cwtawSGIg_11miroir_core9migrationNtB7_20MigrationCoordinator20is_dual_write_active0B9_
FNDA:0,_RNCNvMs4_NtCs14cwtawSGIg_11miroir_core9migrationNtB7_20MigrationCoordinator20shard_delta_complete0B9_
FNDA:7,_RNCNvMs4_NtCs14cwtawSGIg_11miroir_core9migrationNtB7_20MigrationCoordinator20shard_delta_completes_0B9_
FNDA:0,_RNCNvMs4_NtCs14cwtawSGIg_11miroir_core9migrationNtB7_20MigrationCoordinator24shard_migration_complete0B9_
FNDA:13,_RNCNvMs4_NtCs14cwtawSGIg_11miroir_core9migrationNtB7_20MigrationCoordinator24shard_migration_completes_0B9_
FNDA:0,_RINvNtNtCs14cwtawSGIg_11miroir_core9migration13instant_serde11deserializepEB6_
FNDA:0,_RINvNtNtCs14cwtawSGIg_11miroir_core9migration13instant_serde9serializepEB6_
FNDA:0,_RNvMs4_NtCs14cwtawSGIg_11miroir_core9migrationNtB5_20MigrationCoordinator10fail_write
FNDA:0,_RNvMs4_NtCs14cwtawSGIg_11miroir_core9migrationNtB5_20MigrationCoordinator6config
FNDA:0,_RNvMs4_NtCs14cwtawSGIg_11miroir_core9migrationNtB5_20MigrationCoordinator9ack_write
FNDA:0,_RNvXNtCs14cwtawSGIg_11miroir_core9migrationNtB2_11MigrationIdNtNtCs1p5UDGgVI4d_4core3fmt7Display3fmt
FNDA:0,_RNvXs0_NtCs14cwtawSGIg_11miroir_core9migrationNtB5_7ShardIdNtNtCs1p5UDGgVI4d_4core3fmt7Display3fmt
FNDA:0,_RNvXs_NtCs14cwtawSGIg_11miroir_core9migrationNtB4_6NodeIdNtNtCs1p5UDGgVI4d_4core3fmt7Display3fmt
FNF:43
FNH:31
DA:39,0
DA:40,0
DA:41,0
DA:49,0
DA:50,0
DA:51,0
DA:59,0
DA:60,0
DA:61,0
DA:93,0
DA:94,0
DA:95,0
DA:97,0
DA:98,0
DA:100,0
DA:101,0
DA:102,0
DA:105,0
DA:106,0
DA:109,0
DA:110,0
DA:112,0
DA:113,0
DA:114,0
DA:118,0
DA:119,0
DA:121,0
DA:123,0
DA:124,0
DA:126,0
DA:153,0
DA:154,0
DA:155,0
DA:156,0
DA:157,0
DA:158,0
DA:159,0
DA:160,0
DA:161,0
DA:162,0
DA:163,0
DA:165,0
DA:186,0
DA:187,0
DA:188,0
DA:190,0
DA:191,0
DA:193,0
DA:194,0
DA:195,0
DA:197,0
DA:198,0
DA:199,0
DA:216,16
DA:217,16
DA:218,16
DA:219,16
DA:220,16
DA:221,16
DA:222,16
DA:268,10
DA:269,10
DA:270,10
DA:271,10
DA:272,10
DA:273,10
DA:274,10
DA:275,10
DA:279,10
DA:280,10
DA:281,2
DA:282,8
DA:283,8
DA:284,10
DA:287,10
DA:288,10
DA:289,10
DA:290,10
DA:291,10
DA:292,10
DA:293,10
DA:295,8
DA:296,8
DA:298,8
DA:299,8
DA:300,10
DA:301,8
DA:303,8
DA:304,8
DA:305,8
DA:306,8
DA:307,8
DA:308,8
DA:309,8
DA:310,8
DA:311,8
DA:312,8
DA:314,8
DA:315,8
DA:316,10
DA:319,8
DA:320,8
DA:321,8
DA:322,8
DA:323,8
DA:324,8
DA:325,10
DA:326,10
DA:327,10
DA:328,10
DA:329,10
DA:330,10
DA:331,10
DA:333,8
DA:334,8
DA:337,10
DA:338,10
DA:339,10
DA:340,10
DA:341,10
DA:342,10
DA:343,10
DA:344,10
DA:345,10
DA:346,10
DA:347,10
DA:348,0
DA:349,0
DA:351,10
DA:352,10
DA:353,10
DA:354,10
DA:356,0
DA:357,0
DA:358,0
DA:359,0
DA:364,10
DA:365,10
DA:366,10
DA:367,13
DA:369,10
DA:370,8
DA:371,8
DA:373,10
DA:374,10
DA:377,6
DA:378,6
DA:379,6
DA:380,6
DA:381,6
DA:383,6
DA:384,0
DA:385,0
DA:386,0
DA:387,0
DA:388,6
DA:391,6
DA:392,8
DA:393,8
DA:394,8
DA:395,8
DA:396,8
DA:397,8
DA:398,8
DA:399,8
DA:401,0
DA:402,0
DA:403,0
DA:404,0
DA:409,6
DA:410,6
DA:411,6
DA:414,4
DA:415,4
DA:416,4
DA:419,0
DA:420,0
DA:421,0
DA:422,0
DA:423,0
DA:425,0
DA:428,0
DA:429,0
DA:430,0
DA:431,0
DA:432,0
DA:434,0
DA:437,6
DA:438,6
DA:439,6
DA:440,6
DA:441,6
DA:444,6
DA:446,6
DA:447,6
DA:448,6
DA:449,6
DA:451,6
DA:453,6
DA:454,0
DA:455,0
DA:456,0
DA:457,0
DA:458,6
DA:461,6
DA:462,2
DA:463,2
DA:464,2
DA:465,2
DA:466,2
DA:467,2
DA:468,4
DA:471,4
DA:472,4
DA:475,4
DA:476,4
DA:477,4
DA:478,4
DA:480,4
DA:481,2
DA:482,2
DA:483,2
DA:484,0
DA:485,0
DA:486,2
DA:487,4
DA:488,4
DA:489,4
DA:490,4
DA:491,4
DA:492,4
DA:493,4
DA:498,4
DA:499,4
DA:500,4
DA:501,4
DA:502,4
DA:503,4
DA:504,4
DA:507,4
DA:508,4
DA:509,2
DA:510,2
DA:512,2
DA:513,2
DA:514,2
DA:515,2
DA:516,2
DA:517,2
DA:519,2
DA:520,6
DA:524,4
DA:525,4
DA:526,4
DA:527,4
DA:528,4
DA:529,4
DA:530,4
DA:531,4
DA:532,4
DA:534,6
DA:535,2
DA:536,2
DA:537,0
DA:540,2
DA:541,2
DA:544,2
DA:545,2
DA:546,2
DA:547,2
DA:548,2
DA:549,2
DA:552,4
DA:553,4
DA:556,4
DA:557,4
DA:558,4
DA:559,4
DA:560,4
DA:561,4
DA:562,4
DA:563,4
DA:564,4
DA:565,4
DA:566,4
DA:567,0
DA:568,0
DA:570,4
DA:571,4
DA:572,4
DA:573,4
DA:574,4
DA:575,4
DA:577,0
DA:578,0
DA:579,0
DA:580,0
DA:585,4
DA:586,4
DA:587,4
DA:588,7
DA:590,4
DA:591,2
DA:592,2
DA:593,2
DA:595,4
DA:596,4
DA:599,4
DA:600,4
DA:601,4
DA:602,4
DA:603,4
DA:605,6
DA:606,6
DA:608,6
DA:609,6
DA:610,6
DA:611,0
DA:615,4
DA:616,4
DA:617,4
DA:619,4
DA:620,4
DA:623,4
DA:624,4
DA:625,4
DA:626,4
DA:627,4
DA:629,4
DA:630,0
DA:631,0
DA:632,0
DA:633,0
DA:634,4
DA:636,4
DA:637,4
DA:638,4
DA:639,4
DA:642,6
DA:643,6
DA:644,6
DA:647,6
DA:648,6
DA:649,6
DA:650,2
DA:651,4
DA:654,6
DA:655,6
DA:658,0
DA:659,0
DA:660,0
DA:667,34
DA:668,34
DA:669,34
DA:671,36
DA:672,36
DA:673,36
DA:676,2
DA:677,2
DA:678,2
DA:679,2
DA:680,2
DA:681,2
DA:682,2
DA:684,2
DA:686,2
DA:687,2
DA:690,2
DA:691,2
DA:696,2
DA:697,2
DA:698,2
DA:699,2
DA:700,2
DA:701,2
DA:702,2
DA:703,2
DA:706,2
DA:710,2
DA:711,2
DA:714,2
DA:716,2
DA:719,2
DA:720,2
DA:722,2
DA:723,2
DA:724,2
DA:725,2
DA:728,2
DA:729,2
DA:730,2
DA:731,2
DA:732,2
DA:733,2
DA:734,2
DA:736,2
DA:737,2
DA:739,2
DA:740,2
DA:741,2
DA:742,2
DA:745,2
DA:746,2
DA:747,2
DA:748,2
DA:749,2
DA:750,2
DA:751,2
DA:753,2
DA:754,2
DA:755,2
DA:756,2
DA:758,2
DA:761,2
DA:762,2
DA:764,2
DA:765,2
DA:766,2
DA:769,2
DA:772,2
DA:773,2
DA:774,2
DA:775,2
DA:776,2
DA:777,2
DA:778,2
DA:780,2
DA:781,2
DA:782,2
DA:783,2
DA:784,2
DA:787,2
DA:788,2
DA:789,2
DA:790,2
DA:791,2
DA:792,2
DA:793,2
DA:794,2
DA:797,2
DA:798,2
DA:799,2
DA:800,2
DA:803,2
DA:806,2
DA:807,2
DA:808,2
DA:810,2
DA:811,2
DA:812,2
DA:815,2
DA:817,2
DA:820,2
DA:821,2
DA:822,2
BRF:0
BRH:0
LF:467
LH:363
end_of_record
SF:/home/coding/miroir/crates/miroir-core/src/reshard.rs
FN:39,_RNvMs_NtCs14cwtawSGIg_11miroir_core7reshardNtB4_10TimeWindow5parse
FN:62,_RNvMs_NtCs14cwtawSGIg_11miroir_core7reshardNtB4_10TimeWindow8contains
FN:49,_RNvMs_NtCs14cwtawSGIg_11miroir_core7reshardNtB4_10TimeWindow8parse_hm
FN:138,_RNvNtCs14cwtawSGIg_11miroir_core7reshard12check_window
FN:102,_RNvNtCs14cwtawSGIg_11miroir_core7reshard20default_retain_hours
FN:96,_RNvNtCs14cwtawSGIg_11miroir_core7reshard27default_backfill_batch_size
FN:93,_RNvNtCs14cwtawSGIg_11miroir_core7reshard28default_backfill_concurrency
FN:398,_RNvNtCs14cwtawSGIg_11miroir_core7reshard2cv
FN:255,_RNvNtCs14cwtawSGIg_11miroir_core7reshard8simulate
FN:107,_RNvXs0_NtCs14cwtawSGIg_11miroir_core7reshardNtB5_16ReshardingConfigNtNtCs1p5UDGgVI4d_4core7default7Default7default
FN:493,_RNvNtNtCs14cwtawSGIg_11miroir_core7reshard5testss_19window_guard_denied
FN:483,_RNvNtNtCs14cwtawSGIg_11miroir_core7reshard5testss_20window_guard_allowed
FN:426,_RNvNtNtCs14cwtawSGIg_11miroir_core7reshard5testss_24time_window_parse_simple
FN:448,_RNvNtNtCs14cwtawSGIg_11miroir_core7reshard5testss_25time_window_contains_wrap
FN:456,_RNvNtNtCs14cwtawSGIg_11miroir_core7reshard5testss_26time_window_boundary_start
FN:468,_RNvNtNtCs14cwtawSGIg_11miroir_core7reshard5testss_26time_window_invalid_format
FN:550,_RNvNtNtCs14cwtawSGIg_11miroir_core7reshard5testss_27simulation_dual_write_is_2x
FN:440,_RNvNtNtCs14cwtawSGIg_11miroir_core7reshard5testss_27time_window_contains_normal
FN:477,_RNvNtNtCs14cwtawSGIg_11miroir_core7reshard5testss_27window_guard_no_restriction
FN:528,_RNvNtNtCs14cwtawSGIg_11miroir_core7reshard5testss_28simulation_storage_always_2x
FN:503,_RNvNtNtCs14cwtawSGIg_11miroir_core7reshard5testss_29window_guard_multiple_windows
FN:433,_RNvNtNtCs14cwtawSGIg_11miroir_core7reshard5testss_31time_window_parse_wrap_midnight
FN:571,_RNvNtNtCs14cwtawSGIg_11miroir_core7reshard5testss_32simulation_low_cv_with_many_docs
FN:462,_RNvNtNtCs14cwtawSGIg_11miroir_core7reshard5testss_34time_window_boundary_end_exclusive
FN:42,_RNCNvMs_NtCs14cwtawSGIg_11miroir_core7reshardNtB6_10TimeWindow5parse0B8_
FN:52,_RNCNvMs_NtCs14cwtawSGIg_11miroir_core7reshardNtB6_10TimeWindow8parse_hm0B8_
FN:54,_RNCNvMs_NtCs14cwtawSGIg_11miroir_core7reshardNtB6_10TimeWindow8parse_hms0_0B8_
FN:53,_RNCNvMs_NtCs14cwtawSGIg_11miroir_core7reshardNtB6_10TimeWindow8parse_hms_0B8_
FN:409,_RNCNvNtCs14cwtawSGIg_11miroir_core7reshard2cv0B5_
FN:263,_RNCNvNtCs14cwtawSGIg_11miroir_core7reshard8simulate0B5_
FN:304,_RNCNvNtCs14cwtawSGIg_11miroir_core7reshard8simulates0_0B5_
FN:299,_RNCNvNtCs14cwtawSGIg_11miroir_core7reshard8simulates_0B5_
FN:99,_RNvNtCs14cwtawSGIg_11miroir_core7reshard12default_true
FN:162,_RNvNtCs14cwtawSGIg_11miroir_core7reshard16check_window_now
FN:167,_RNvNtCs14cwtawSGIg_11miroir_core7reshard18current_utc_minute
FN:25,_RNvXNtCs14cwtawSGIg_11miroir_core7reshardNtB2_10TimeWindowNtNtCs1p5UDGgVI4d_4core3fmt7Display3fmt
FNDA:32,_RNvMs_NtCs14cwtawSGIg_11miroir_core7reshardNtB4_10TimeWindow5parse
FNDA:30,_RNvMs_NtCs14cwtawSGIg_11miroir_core7reshardNtB4_10TimeWindow8contains
FNDA:58,_RNvMs_NtCs14cwtawSGIg_11miroir_core7reshardNtB4_10TimeWindow8parse_hm
FNDA:12,_RNvNtCs14cwtawSGIg_11miroir_core7reshard12check_window
FNDA:8,_RNvNtCs14cwtawSGIg_11miroir_core7reshard20default_retain_hours
FNDA:8,_RNvNtCs14cwtawSGIg_11miroir_core7reshard27default_backfill_batch_size
FNDA:8,_RNvNtCs14cwtawSGIg_11miroir_core7reshard28default_backfill_concurrency
FNDA:12,_RNvNtCs14cwtawSGIg_11miroir_core7reshard2cv
FNDA:6,_RNvNtCs14cwtawSGIg_11miroir_core7reshard8simulate
FNDA:8,_RNvXs0_NtCs14cwtawSGIg_11miroir_core7reshardNtB5_16ReshardingConfigNtNtCs1p5UDGgVI4d_4core7default7Default7default
FNDA:2,_RNvNtNtCs14cwtawSGIg_11miroir_core7reshard5testss_19window_guard_denied
FNDA:2,_RNvNtNtCs14cwtawSGIg_11miroir_core7reshard5testss_20window_guard_allowed
FNDA:2,_RNvNtNtCs14cwtawSGIg_11miroir_core7reshard5testss_24time_window_parse_simple
FNDA:2,_RNvNtNtCs14cwtawSGIg_11miroir_core7reshard5testss_25time_window_contains_wrap
FNDA:2,_RNvNtNtCs14cwtawSGIg_11miroir_core7reshard5testss_26time_window_boundary_start
FNDA:2,_RNvNtNtCs14cwtawSGIg_11miroir_core7reshard5testss_26time_window_invalid_format
FNDA:2,_RNvNtNtCs14cwtawSGIg_11miroir_core7reshard5testss_27simulation_dual_write_is_2x
FNDA:2,_RNvNtNtCs14cwtawSGIg_11miroir_core7reshard5testss_27time_window_contains_normal
FNDA:2,_RNvNtNtCs14cwtawSGIg_11miroir_core7reshard5testss_27window_guard_no_restriction
FNDA:2,_RNvNtNtCs14cwtawSGIg_11miroir_core7reshard5testss_28simulation_storage_always_2x
FNDA:2,_RNvNtNtCs14cwtawSGIg_11miroir_core7reshard5testss_29window_guard_multiple_windows
FNDA:2,_RNvNtNtCs14cwtawSGIg_11miroir_core7reshard5testss_31time_window_parse_wrap_midnight
FNDA:2,_RNvNtNtCs14cwtawSGIg_11miroir_core7reshard5testss_32simulation_low_cv_with_many_docs
FNDA:2,_RNvNtNtCs14cwtawSGIg_11miroir_core7reshard5testss_34time_window_boundary_end_exclusive
FNDA:0,_RNCNvMs_NtCs14cwtawSGIg_11miroir_core7reshardNtB6_10TimeWindow5parse0B8_
FNDA:2,_RNCNvMs_NtCs14cwtawSGIg_11miroir_core7reshardNtB6_10TimeWindow8parse_hm0B8_
FNDA:0,_RNCNvMs_NtCs14cwtawSGIg_11miroir_core7reshardNtB6_10TimeWindow8parse_hms0_0B8_
FNDA:0,_RNCNvMs_NtCs14cwtawSGIg_11miroir_core7reshardNtB6_10TimeWindow8parse_hms_0B8_
FNDA:640,_RNCNvNtCs14cwtawSGIg_11miroir_core7reshard2cv0B5_
FNDA:10,_RNCNvNtCs14cwtawSGIg_11miroir_core7reshard8simulate0B5_
FNDA:94499640,_RNCNvNtCs14cwtawSGIg_11miroir_core7reshard8simulates0_0B5_
FNDA:91508226,_RNCNvNtCs14cwtawSGIg_11miroir_core7reshard8simulates_0B5_
FNDA:0,_RNvNtCs14cwtawSGIg_11miroir_core7reshard12default_true
FNDA:0,_RNvNtCs14cwtawSGIg_11miroir_core7reshard16check_window_now
FNDA:0,_RNvNtCs14cwtawSGIg_11miroir_core7reshard18current_utc_minute
FNDA:0,_RNvXNtCs14cwtawSGIg_11miroir_core7reshardNtB2_10TimeWindowNtNtCs1p5UDGgVI4d_4core3fmt7Display3fmt
FNF:36
FNH:29
DA:25,0
DA:26,0
DA:27,0
DA:28,0
DA:29,0
DA:30,0
DA:31,0
DA:32,0
DA:34,0
DA:39,32
DA:40,32
DA:41,32
DA:42,32
DA:44,32
DA:45,26
DA:47,32
DA:49,58
DA:50,58
DA:51,58
DA:52,58
DA:53,56
DA:54,56
DA:55,56
DA:56,4
DA:57,52
DA:58,52
DA:59,58
DA:62,30
DA:63,30
DA:64,24
DA:67,6
DA:69,30
DA:93,8
DA:94,8
DA:95,8
DA:96,8
DA:97,8
DA:98,8
DA:99,0
DA:100,0
DA:101,0
DA:102,8
DA:103,8
DA:104,8
DA:107,8
DA:108,8
DA:109,8
DA:110,8
DA:111,8
DA:112,8
DA:113,8
DA:114,8
DA:115,8
DA:116,8
DA:117,8
DA:138,12
DA:139,12
DA:140,2
DA:141,10
DA:143,18
DA:144,14
DA:145,14
DA:146,0
DA:148,14
DA:149,6
DA:150,6
DA:151,6
DA:152,8
DA:155,4
DA:156,4
DA:157,4
DA:158,4
DA:159,12
DA:162,0
DA:163,0
DA:164,0
DA:165,0
DA:167,0
DA:168,0
DA:169,0
DA:170,0
DA:171,0
DA:172,0
DA:255,6
DA:256,6
DA:257,6
DA:258,6
DA:259,6
DA:262,6
DA:263,10
DA:264,10
DA:265,32
DA:266,32
DA:267,32
DA:268,10
DA:269,10
DA:270,6
DA:274,6
DA:275,6
DA:280,6
DA:281,6
DA:282,6
DA:284,22973568
DA:285,22973568
DA:286,22973568
DA:287,22973568
DA:289,22973568
DA:290,22973568
DA:293,43947136
DA:294,43947136
DA:295,43947136
DA:297,87894272
DA:298,43947136
DA:299,91508226
DA:300,43947136
DA:302,87894272
DA:303,43947136
DA:304,94499640
DA:305,43947136
DA:311,6
DA:312,6
DA:315,6
DA:317,6
DA:320,6
DA:321,6
DA:325,6
DA:327,6
DA:330,6
DA:331,6
DA:333,6
DA:334,6
DA:337,6
DA:338,6
DA:340,0
DA:347,6
DA:348,6
DA:349,6
DA:350,6
DA:351,6
DA:353,0
DA:356,6
DA:358,6
DA:359,6
DA:360,6
DA:361,6
DA:362,6
DA:363,6
DA:364,6
DA:365,6
DA:366,6
DA:367,6
DA:368,6
DA:369,6
DA:370,6
DA:371,6
DA:372,6
DA:373,6
DA:374,6
DA:375,6
DA:376,6
DA:377,6
DA:378,6
DA:379,6
DA:380,6
DA:381,6
DA:382,6
DA:383,6
DA:384,6
DA:385,6
DA:386,6
DA:387,6
DA:388,6
DA:389,6
DA:390,6
DA:391,6
DA:392,6
DA:393,6
DA:394,6
DA:395,6
DA:398,12
DA:399,12
DA:400,0
DA:401,12
DA:402,12
DA:403,12
DA:404,12
DA:405,0
DA:406,12
DA:407,12
DA:408,12
DA:409,640
DA:410,12
DA:411,12
DA:412,12
DA:413,12
DA:426,2
DA:427,2
DA:428,2
DA:429,2
DA:430,2
DA:433,2
DA:434,2
DA:435,2
DA:436,2
DA:437,2
DA:440,2
DA:441,2
DA:442,2
DA:443,2
DA:444,2
DA:445,2
DA:448,2
DA:449,2
DA:450,2
DA:451,2
DA:452,2
DA:453,2
DA:456,2
DA:457,2
DA:458,2
DA:459,2
DA:462,2
DA:463,2
DA:464,2
DA:465,2
DA:468,2
DA:469,2
DA:470,2
DA:471,2
DA:472,2
DA:477,2
DA:478,2
DA:479,2
DA:480,2
DA:483,2
DA:484,2
DA:485,2
DA:486,2
DA:487,2
DA:488,2
DA:489,2
DA:490,2
DA:493,2
DA:494,2
DA:495,2
DA:496,2
DA:497,2
DA:498,2
DA:499,2
DA:500,2
DA:503,2
DA:504,2
DA:505,2
DA:506,2
DA:507,2
DA:509,2
DA:510,2
DA:514,2
DA:515,2
DA:519,2
DA:520,2
DA:523,2
DA:528,2
DA:530,2
DA:531,2
DA:532,2
DA:533,2
DA:534,2
DA:535,2
DA:536,2
DA:537,2
DA:538,2
DA:539,2
DA:540,2
DA:541,2
DA:542,2
DA:543,2
DA:544,0
DA:547,2
DA:550,2
DA:551,2
DA:552,2
DA:553,2
DA:554,2
DA:555,2
DA:556,2
DA:557,2
DA:558,2
DA:559,2
DA:560,2
DA:561,2
DA:562,2
DA:563,2
DA:564,2
DA:565,0
DA:568,2
DA:571,2
DA:573,2
DA:574,2
DA:575,2
DA:576,2
DA:577,2
DA:578,2
DA:579,2
DA:580,2
DA:581,2
DA:582,2
DA:583,2
DA:584,2
DA:585,2
DA:586,2
DA:587,0
DA:590,2
DA:591,2
DA:592,0
DA:595,2
BRF:0
BRH:0
LF:324
LH:290
end_of_record
SF:/home/coding/miroir/crates/miroir-core/src/router.rs
FN:34,_RNCNCNvNtCs14cwtawSGIg_11miroir_core6router21assign_shard_in_groups_00B7_
FN:63,_RNCNvNtCs14cwtawSGIg_11miroir_core6router12covering_set0B5_
FN:47,_RNCNvNtCs14cwtawSGIg_11miroir_core6router13write_targets0B5_
FN:30,_RNCNvNtCs14cwtawSGIg_11miroir_core6router21assign_shard_in_group0B5_
FN:39,_RNCNvNtCs14cwtawSGIg_11miroir_core6router21assign_shard_in_groups0_0B5_
FN:32,_RNCNvNtCs14cwtawSGIg_11miroir_core6router21assign_shard_in_groups_0B5_
FN:100,_RNvNtNtCs14cwtawSGIg_11miroir_core6router5testss_20test_score_stability
FN:108,_RNvNtNtCs14cwtawSGIg_11miroir_core6router5testss_21test_score_uniqueness
FN:193,_RNvNtNtCs14cwtawSGIg_11miroir_core6router5testss_21test_top_rf_stability
FN:240,_RNvNtNtCs14cwtawSGIg_11miroir_core6router5testss_24test_write_targets_count
FN:85,_RNvNtNtCs14cwtawSGIg_11miroir_core6router5testss_27test_rendezvous_determinism
FN:484,_RNvNtNtCs14cwtawSGIg_11miroir_core6router5testss_28test_group_scoped_assignment
FN:452,_RNvNtNtCs14cwtawSGIg_11miroir_core6router5testss_29test_assign_shard_empty_nodes
FN:417,_RNvNtNtCs14cwtawSGIg_11miroir_core6router5testss_29test_assign_shard_respects_rf
FN:282,_RNvNtNtCs14cwtawSGIg_11miroir_core6router5testss_29test_query_group_distribution
FN:380,_RNvNtNtCs14cwtawSGIg_11miroir_core6router5testss_30test_shard_for_key_determinism
FN:736,_RNvNtNtCs14cwtawSGIg_11miroir_core6router5testss_31acceptance_tie_breaking_node_id
FN:307,_RNvNtNtCs14cwtawSGIg_11miroir_core6router5testss_31test_covering_set_one_per_shard
FN:120,_RNvNtNtCs14cwtawSGIg_11miroir_core6router5testss_31test_minimal_reshuffling_on_add
FN:393,_RNvNtNtCs14cwtawSGIg_11miroir_core6router5testss_31test_shard_for_key_distribution
FN:540,_RNvNtNtCs14cwtawSGIg_11miroir_core6router5testss_32acceptance_determinism_1000_runs
FN:713,_RNvNtNtCs14cwtawSGIg_11miroir_core6router5testss_32acceptance_shard_for_key_fixture
FN:154,_RNvNtNtCs14cwtawSGIg_11miroir_core6router5testss_32test_shard_distribution_64_3_rf1
FN:563,_RNvNtNtCs14cwtawSGIg_11miroir_core6router5testss_33acceptance_reshuffle_bound_on_add
FN:464,_RNvNtNtCs14cwtawSGIg_11miroir_core6router5testss_33test_write_targets_empty_topology
FN:673,_RNvNtNtCs14cwtawSGIg_11miroir_core6router5testss_34acceptance_rf2_placement_stability
FN:340,_RNvNtNtCs14cwtawSGIg_11miroir_core6router5testss_34test_covering_set_replica_rotation
FN:476,_RNvNtNtCs14cwtawSGIg_11miroir_core6router5testss_35test_shard_for_key_zero_shard_count
FN:597,_RNvNtNtCs14cwtawSGIg_11miroir_core6router5testss_36acceptance_reshuffle_bound_on_remove
FN:436,_RNvNtNtCs14cwtawSGIg_11miroir_core6router5testss_38test_assign_shard_rf_larger_than_nodes
FN:758,_RNvNtNtCs14cwtawSGIg_11miroir_core6router5testss_40acceptance_canonical_concatenation_order
FN:638,_RNvNtNtCs14cwtawSGIg_11miroir_core6router5testss_43acceptance_uniformity_64_shards_3_nodes_rf1
FN:52,_RNvNtCs14cwtawSGIg_11miroir_core6router11query_group
FN:61,_RNvNtCs14cwtawSGIg_11miroir_core6router12covering_set
FN:72,_RNvNtCs14cwtawSGIg_11miroir_core6router13shard_for_key
FN:44,_RNvNtCs14cwtawSGIg_11miroir_core6router13write_targets
FN:27,_RNvNtCs14cwtawSGIg_11miroir_core6router21assign_shard_in_group
FN:14,_RNvNtCs14cwtawSGIg_11miroir_core6router5score
FN:522,_RNCNCNvNtNtCs14cwtawSGIg_11miroir_core6router5testss_28test_group_scoped_assignment00B9_
FN:528,_RNCNCNvNtNtCs14cwtawSGIg_11miroir_core6router5testss_28test_group_scoped_assignments_00B9_
FN:196,_RNCNvNtNtCs14cwtawSGIg_11miroir_core6router5testss_21test_top_rf_stability0B7_
FN:200,_RNCNvNtNtCs14cwtawSGIg_11miroir_core6router5testss_21test_top_rf_stabilitys_0B7_
FN:269,_RNCNvNtNtCs14cwtawSGIg_11miroir_core6router5testss_24test_write_targets_count0B7_
FN:88,_RNCNvNtNtCs14cwtawSGIg_11miroir_core6router5testss_27test_rendezvous_determinism0B7_
FN:519,_RNCNvNtNtCs14cwtawSGIg_11miroir_core6router5testss_28test_group_scoped_assignment0B7_
FN:525,_RNCNvNtNtCs14cwtawSGIg_11miroir_core6router5testss_28test_group_scoped_assignments_0B7_
FN:420,_RNCNvNtNtCs14cwtawSGIg_11miroir_core6router5testss_29test_assign_shard_respects_rf0B7_
FN:740,_RNCNvNtNtCs14cwtawSGIg_11miroir_core6router5testss_31acceptance_tie_breaking_node_id0B7_
FN:123,_RNCNvNtNtCs14cwtawSGIg_11miroir_core6router5testss_31test_minimal_reshuffling_on_add0B7_
FN:127,_RNCNvNtNtCs14cwtawSGIg_11miroir_core6router5testss_31test_minimal_reshuffling_on_adds_0B7_
FN:543,_RNCNvNtNtCs14cwtawSGIg_11miroir_core6router5testss_32acceptance_determinism_1000_runs0B7_
FN:157,_RNCNvNtNtCs14cwtawSGIg_11miroir_core6router5testss_32test_shard_distribution_64_3_rf10B7_
FN:566,_RNCNvNtNtCs14cwtawSGIg_11miroir_core6router5testss_33acceptance_reshuffle_bound_on_add0B7_
FN:570,_RNCNvNtNtCs14cwtawSGIg_11miroir_core6router5testss_33acceptance_reshuffle_bound_on_adds_0B7_
FN:676,_RNCNvNtNtCs14cwtawSGIg_11miroir_core6router5testss_34acceptance_rf2_placement_stability0B7_
FN:680,_RNCNvNtNtCs14cwtawSGIg_11miroir_core6router5testss_34acceptance_rf2_placement_stabilitys_0B7_
FN:600,_RNCNvNtNtCs14cwtawSGIg_11miroir_core6router5testss_36acceptance_reshuffle_bound_on_remove0B7_
FN:604,_RNCNvNtNtCs14cwtawSGIg_11miroir_core6router5testss_36acceptance_reshuffle_bound_on_removes_0B7_
FN:439,_RNCNvNtNtCs14cwtawSGIg_11miroir_core6router5testss_38test_assign_shard_rf_larger_than_nodes0B7_
FN:641,_RNCNvNtNtCs14cwtawSGIg_11miroir_core6router5testss_43acceptance_uniformity_64_shards_3_nodes_rf10B7_
FNDA:0,_RNCNCNvNtCs14cwtawSGIg_11miroir_core6router21assign_shard_in_groups_00B7_
FNDA:168,_RNCNvNtCs14cwtawSGIg_11miroir_core6router12covering_set0B5_
FNDA:10,_RNCNvNtCs14cwtawSGIg_11miroir_core6router13write_targets0B5_
FNDA:267705932,_RNCNvNtCs14cwtawSGIg_11miroir_core6router21assign_shard_in_group0B5_
FNDA:87905408,_RNCNvNtCs14cwtawSGIg_11miroir_core6router21assign_shard_in_groups0_0B5_
FNDA:244430928,_RNCNvNtCs14cwtawSGIg_11miroir_core6router21assign_shard_in_groups_0B5_
FNDA:2,_RNvNtNtCs14cwtawSGIg_11miroir_core6router5testss_20test_score_stability
FNDA:2,_RNvNtNtCs14cwtawSGIg_11miroir_core6router5testss_21test_score_uniqueness
FNDA:2,_RNvNtNtCs14cwtawSGIg_11miroir_core6router5testss_21test_top_rf_stability
FNDA:2,_RNvNtNtCs14cwtawSGIg_11miroir_core6router5testss_24test_write_targets_count
FNDA:2,_RNvNtNtCs14cwtawSGIg_11miroir_core6router5testss_27test_rendezvous_determinism
FNDA:2,_RNvNtNtCs14cwtawSGIg_11miroir_core6router5testss_28test_group_scoped_assignment
FNDA:2,_RNvNtNtCs14cwtawSGIg_11miroir_core6router5testss_29test_assign_shard_empty_nodes
FNDA:2,_RNvNtNtCs14cwtawSGIg_11miroir_core6router5testss_29test_assign_shard_respects_rf
FNDA:2,_RNvNtNtCs14cwtawSGIg_11miroir_core6router5testss_29test_query_group_distribution
FNDA:2,_RNvNtNtCs14cwtawSGIg_11miroir_core6router5testss_30test_shard_for_key_determinism
FNDA:2,_RNvNtNtCs14cwtawSGIg_11miroir_core6router5testss_31acceptance_tie_breaking_node_id
FNDA:2,_RNvNtNtCs14cwtawSGIg_11miroir_core6router5testss_31test_covering_set_one_per_shard
FNDA:2,_RNvNtNtCs14cwtawSGIg_11miroir_core6router5testss_31test_minimal_reshuffling_on_add
FNDA:2,_RNvNtNtCs14cwtawSGIg_11miroir_core6router5testss_31test_shard_for_key_distribution
FNDA:2,_RNvNtNtCs14cwtawSGIg_11miroir_core6router5testss_32acceptance_determinism_1000_runs
FNDA:2,_RNvNtNtCs14cwtawSGIg_11miroir_core6router5testss_32acceptance_shard_for_key_fixture
FNDA:2,_RNvNtNtCs14cwtawSGIg_11miroir_core6router5testss_32test_shard_distribution_64_3_rf1
FNDA:2,_RNvNtNtCs14cwtawSGIg_11miroir_core6router5testss_33acceptance_reshuffle_bound_on_add
FNDA:2,_RNvNtNtCs14cwtawSGIg_11miroir_core6router5testss_33test_write_targets_empty_topology
FNDA:2,_RNvNtNtCs14cwtawSGIg_11miroir_core6router5testss_34acceptance_rf2_placement_stability
FNDA:2,_RNvNtNtCs14cwtawSGIg_11miroir_core6router5testss_34test_covering_set_replica_rotation
FNDA:2,_RNvNtNtCs14cwtawSGIg_11miroir_core6router5testss_35test_shard_for_key_zero_shard_count
FNDA:2,_RNvNtNtCs14cwtawSGIg_11miroir_core6router5testss_36acceptance_reshuffle_bound_on_remove
FNDA:2,_RNvNtNtCs14cwtawSGIg_11miroir_core6router5testss_38test_assign_shard_rf_larger_than_nodes
FNDA:2,_RNvNtNtCs14cwtawSGIg_11miroir_core6router5testss_40acceptance_canonical_concatenation_order
FNDA:2,_RNvNtNtCs14cwtawSGIg_11miroir_core6router5testss_43acceptance_uniformity_64_shards_3_nodes_rf1
FNDA:2000,_RNvNtCs14cwtawSGIg_11miroir_core6router11query_group
FNDA:6,_RNvNtCs14cwtawSGIg_11miroir_core6router12covering_set
FNDA:45949152,_RNvNtCs14cwtawSGIg_11miroir_core6router13shard_for_key
FNDA:6,_RNvNtCs14cwtawSGIg_11miroir_core6router13write_targets
FNDA:87900296,_RNvNtCs14cwtawSGIg_11miroir_core6router21assign_shard_in_group
FNDA:267705944,_RNvNtCs14cwtawSGIg_11miroir_core6router5score
FNDA:2,_RNCNCNvNtNtCs14cwtawSGIg_11miroir_core6router5testss_28test_group_scoped_assignment00B9_
FNDA:4,_RNCNCNvNtNtCs14cwtawSGIg_11miroir_core6router5testss_28test_group_scoped_assignments_00B9_
FNDA:6,_RNCNvNtNtCs14cwtawSGIg_11miroir_core6router5testss_21test_top_rf_stability0B7_
FNDA:8,_RNCNvNtNtCs14cwtawSGIg_11miroir_core6router5testss_21test_top_rf_stabilitys_0B7_
FNDA:36,_RNCNvNtNtCs14cwtawSGIg_11miroir_core6router5testss_24test_write_targets_count0B7_
FNDA:6,_RNCNvNtNtCs14cwtawSGIg_11miroir_core6router5testss_27test_rendezvous_determinism0B7_
FNDA:2,_RNCNvNtNtCs14cwtawSGIg_11miroir_core6router5testss_28test_group_scoped_assignment0B7_
FNDA:4,_RNCNvNtNtCs14cwtawSGIg_11miroir_core6router5testss_28test_group_scoped_assignments_0B7_
FNDA:10,_RNCNvNtNtCs14cwtawSGIg_11miroir_core6router5testss_29test_assign_shard_respects_rf0B7_
FNDA:6,_RNCNvNtNtCs14cwtawSGIg_11miroir_core6router5testss_31acceptance_tie_breaking_node_id0B7_
FNDA:6,_RNCNvNtNtCs14cwtawSGIg_11miroir_core6router5testss_31test_minimal_reshuffling_on_add0B7_
FNDA:8,_RNCNvNtNtCs14cwtawSGIg_11miroir_core6router5testss_31test_minimal_reshuffling_on_adds_0B7_
FNDA:8,_RNCNvNtNtCs14cwtawSGIg_11miroir_core6router5testss_32acceptance_determinism_1000_runs0B7_
FNDA:6,_RNCNvNtNtCs14cwtawSGIg_11miroir_core6router5testss_32test_shard_distribution_64_3_rf10B7_
FNDA:6,_RNCNvNtNtCs14cwtawSGIg_11miroir_core6router5testss_33acceptance_reshuffle_bound_on_add0B7_
FNDA:8,_RNCNvNtNtCs14cwtawSGIg_11miroir_core6router5testss_33acceptance_reshuffle_bound_on_adds_0B7_
FNDA:6,_RNCNvNtNtCs14cwtawSGIg_11miroir_core6router5testss_34acceptance_rf2_placement_stability0B7_
FNDA:8,_RNCNvNtNtCs14cwtawSGIg_11miroir_core6router5testss_34acceptance_rf2_placement_stabilitys_0B7_
FNDA:8,_RNCNvNtNtCs14cwtawSGIg_11miroir_core6router5testss_36acceptance_reshuffle_bound_on_remove0B7_
FNDA:6,_RNCNvNtNtCs14cwtawSGIg_11miroir_core6router5testss_36acceptance_reshuffle_bound_on_removes_0B7_
FNDA:6,_RNCNvNtNtCs14cwtawSGIg_11miroir_core6router5testss_38test_assign_shard_rf_larger_than_nodes0B7_
FNDA:6,_RNCNvNtNtCs14cwtawSGIg_11miroir_core6router5testss_43acceptance_uniformity_64_shards_3_nodes_rf10B7_
FNF:60
FNH:59
DA:14,267705944
DA:15,267705944
DA:16,267705944
DA:17,267705944
DA:18,267705944
DA:19,267705944
DA:27,87900296
DA:28,87900296
DA:29,87900296
DA:30,267705932
DA:31,87900296
DA:32,244430928
DA:33,244430928
DA:34,244430928
DA:35,244430928
DA:36,87900296
DA:37,87900296
DA:38,87900296
DA:39,87905408
DA:40,87900296
DA:41,87900296
DA:44,6
DA:45,6
DA:46,6
DA:47,10
DA:48,6
DA:49,6
DA:52,2000
DA:53,2000
DA:54,2000
DA:61,6
DA:62,6
DA:63,168
DA:64,168
DA:66,168
DA:67,168
DA:68,6
DA:69,6
DA:72,45949152
DA:73,45949152
DA:74,45949152
DA:75,45949152
DA:76,45949152
DA:85,2
DA:86,2
DA:87,2
DA:88,6
DA:89,2
DA:90,2
DA:92,2
DA:93,2
DA:95,2
DA:96,2
DA:100,2
DA:101,2
DA:102,2
DA:103,2
DA:104,2
DA:108,2
DA:109,2
DA:110,2
DA:111,2
DA:113,2
DA:114,2
DA:115,2
DA:116,2
DA:120,2
DA:121,2
DA:122,2
DA:123,6
DA:124,2
DA:125,2
DA:126,2
DA:127,8
DA:128,2
DA:130,2
DA:131,2
DA:133,2
DA:134,200
DA:135,200
DA:136,200
DA:139,200
DA:140,46
DA:141,154
DA:145,2
DA:146,2
DA:147,2
DA:148,0
DA:150,2
DA:154,2
DA:155,2
DA:156,2
DA:157,6
DA:158,2
DA:159,2
DA:160,2
DA:162,2
DA:163,2
DA:165,128
DA:166,128
DA:167,128
DA:168,128
DA:169,128
DA:170,128
DA:171,128
DA:175,2
DA:179,8
DA:180,6
DA:181,6
DA:182,0
DA:187,2
DA:188,2
DA:189,2
DA:193,2
DA:194,2
DA:195,2
DA:196,6
DA:197,2
DA:198,2
DA:199,2
DA:200,8
DA:201,2
DA:202,2
DA:203,2
DA:205,2
DA:206,200
DA:207,200
DA:208,200
DA:211,200
DA:212,200
DA:215,200
DA:216,200
DA:217,98
DA:218,102
DA:224,2
DA:225,2
DA:226,2
DA:227,0
DA:231,2
DA:232,2
DA:233,2
DA:234,0
DA:236,2
DA:240,2
DA:241,2
DA:244,8
DA:245,18
DA:246,12
DA:247,12
DA:248,12
DA:249,12
DA:250,12
DA:251,12
DA:252,12
DA:255,2
DA:256,2
DA:259,2
DA:262,2
DA:263,2
DA:266,6
DA:267,6
DA:268,6
DA:269,36
DA:270,6
DA:271,6
DA:272,6
DA:273,6
DA:274,0
DA:278,2
DA:282,2
DA:283,2
DA:284,2
DA:286,2
DA:287,2000
DA:288,2000
DA:289,2000
DA:290,2000
DA:293,2
DA:294,8
DA:295,6
DA:296,6
DA:297,0
DA:299,0
DA:300,0
DA:303,2
DA:307,2
DA:308,2
DA:309,2
DA:310,2
DA:313,10
DA:314,10
DA:315,10
DA:316,10
DA:317,10
DA:318,10
DA:319,10
DA:320,10
DA:322,2
DA:323,2
DA:324,2
DA:325,2
DA:327,2
DA:330,2
DA:333,130
DA:334,128
DA:336,2
DA:340,2
DA:341,2
DA:342,2
DA:345,8
DA:346,6
DA:347,6
DA:348,6
DA:349,6
DA:350,6
DA:351,6
DA:352,6
DA:354,2
DA:355,2
DA:356,2
DA:358,2
DA:359,2
DA:364,2
DA:365,20
DA:366,20
DA:367,20
DA:368,20
DA:372,2
DA:373,2
DA:374,0
DA:376,2
DA:380,2
DA:381,2
DA:382,2
DA:384,2
DA:385,2
DA:387,2
DA:388,2
DA:389,2
DA:393,2
DA:394,2
DA:395,2
DA:397,2
DA:398,2000
DA:399,2000
DA:400,2000
DA:401,2000
DA:402,2000
DA:405,2
DA:406,130
DA:408,128
DA:409,128
DA:410,0
DA:413,2
DA:417,2
DA:418,2
DA:419,2
DA:420,10
DA:421,2
DA:422,2
DA:424,12
DA:425,10
DA:426,10
DA:427,10
DA:429,0
DA:432,2
DA:436,2
DA:437,2
DA:438,2
DA:439,6
DA:440,2
DA:441,2
DA:442,2
DA:444,2
DA:447,2
DA:448,2
DA:452,2
DA:453,2
DA:454,2
DA:455,2
DA:457,2
DA:459,2
DA:460,2
DA:464,2
DA:465,2
DA:466,2
DA:468,2
DA:470,2
DA:471,2
DA:476,2
DA:479,2
DA:480,2
DA:484,2
DA:486,2
DA:487,2
DA:490,2
DA:491,2
DA:492,2
DA:495,2
DA:496,2
DA:497,2
DA:502,2
DA:503,2
DA:504,2
DA:507,2
DA:508,2
DA:509,2
DA:513,2
DA:516,2
DA:519,2
DA:520,2
DA:521,2
DA:522,2
DA:523,2
DA:524,2
DA:525,4
DA:526,4
DA:527,4
DA:528,4
DA:529,4
DA:530,4
DA:532,2
DA:533,2
DA:534,2
DA:540,2
DA:541,2
DA:542,2
DA:543,8
DA:544,2
DA:546,2002
DA:547,2000
DA:548,2000
DA:550,2000
DA:551,2000
DA:553,2000
DA:555,0
DA:559,2
DA:563,2
DA:564,2
DA:565,2
DA:566,6
DA:567,2
DA:568,2
DA:569,2
DA:570,8
DA:571,2
DA:573,2
DA:574,2
DA:576,2
DA:577,128
DA:578,128
DA:579,128
DA:582,128
DA:583,30
DA:584,98
DA:588,2
DA:589,2
DA:590,2
DA:591,0
DA:593,2
DA:597,2
DA:598,2
DA:599,2
DA:600,8
DA:601,2
DA:602,2
DA:603,2
DA:604,6
DA:605,2
DA:607,2
DA:608,2
DA:610,2
DA:611,128
DA:612,128
DA:613,128
DA:616,128
DA:617,128
DA:620,128
DA:621,128
DA:622,58
DA:623,70
DA:628,2
DA:629,2
DA:630,2
DA:631,2
DA:632,0
DA:634,2
DA:638,2
DA:639,2
DA:640,2
DA:641,6
DA:642,2
DA:643,2
DA:644,2
DA:646,2
DA:647,2
DA:649,128
DA:650,128
DA:651,128
DA:652,128
DA:653,128
DA:654,128
DA:655,128
DA:659,8
DA:660,6
DA:661,6
DA:662,0
DA:667,2
DA:668,2
DA:669,2
DA:673,2
DA:674,2
DA:675,2
DA:676,6
DA:677,2
DA:678,2
DA:679,2
DA:680,8
DA:681,2
DA:683,2
DA:684,2
DA:686,2
DA:687,128
DA:688,128
DA:689,128
DA:692,128
DA:693,128
DA:696,128
DA:697,128
DA:698,58
DA:699,70
DA:704,2
DA:705,2
DA:706,2
DA:707,0
DA:709,2
DA:713,2
DA:716,2
DA:717,2
DA:718,2
DA:719,2
DA:720,2
DA:721,2
DA:722,2
DA:724,12
DA:725,10
DA:726,10
DA:728,0
DA:732,2
DA:736,2
DA:738,2
DA:739,2
DA:740,6
DA:741,2
DA:743,2
DA:744,2
DA:746,2
DA:749,2
DA:752,2
DA:753,2
DA:754,2
DA:758,2
DA:761,2
DA:762,2
DA:764,2
DA:768,2
DA:769,2
DA:770,2
DA:771,2
DA:774,2
DA:776,0
DA:778,2
BRF:0
BRH:0
LF:500
LH:481
end_of_record
SF:/home/coding/miroir/crates/miroir-core/src/scatter.rs
FN:160,_RNvNtNtCs14cwtawSGIg_11miroir_core7scatter5testss_27test_node_response_creation
FN:128,_RNvNtNtCs14cwtawSGIg_11miroir_core7scatter5testss_27test_scatter_response_empty
FN:92,_RNvNtNtCs14cwtawSGIg_11miroir_core7scatter5testss_29test_scatter_request_creation
FN:139,_RNvNtNtCs14cwtawSGIg_11miroir_core7scatter5testss_31test_scatter_response_with_data
FN:176,_RNvNtNtCs14cwtawSGIg_11miroir_core7scatter5testss_34test_stub_scatter_with_empty_nodes
FN:197,_RNvNtNtCs14cwtawSGIg_11miroir_core7scatter5testss_37test_stub_scatter_with_multiple_nodes
FN:107,_RNvNtNtCs14cwtawSGIg_11miroir_core7scatter5testss_40test_stub_scatter_returns_empty_response
FN:78,_RNvXs7_NtCs14cwtawSGIg_11miroir_core7scatterNtB5_11StubScatterNtB5_7Scatter7scatter
FN:176,_RNCNvNtNtCs14cwtawSGIg_11miroir_core7scatter5testss_34test_stub_scatter_with_empty_nodes0B7_
FN:197,_RNCNvNtNtCs14cwtawSGIg_11miroir_core7scatter5testss_37test_stub_scatter_with_multiple_nodes0B7_
FN:107,_RNCNvNtNtCs14cwtawSGIg_11miroir_core7scatter5testss_40test_stub_scatter_returns_empty_response0B7_
FNDA:2,_RNvNtNtCs14cwtawSGIg_11miroir_core7scatter5testss_27test_node_response_creation
FNDA:2,_RNvNtNtCs14cwtawSGIg_11miroir_core7scatter5testss_27test_scatter_response_empty
FNDA:2,_RNvNtNtCs14cwtawSGIg_11miroir_core7scatter5testss_29test_scatter_request_creation
FNDA:2,_RNvNtNtCs14cwtawSGIg_11miroir_core7scatter5testss_31test_scatter_response_with_data
FNDA:2,_RNvNtNtCs14cwtawSGIg_11miroir_core7scatter5testss_34test_stub_scatter_with_empty_nodes
FNDA:2,_RNvNtNtCs14cwtawSGIg_11miroir_core7scatter5testss_37test_stub_scatter_with_multiple_nodes
FNDA:2,_RNvNtNtCs14cwtawSGIg_11miroir_core7scatter5testss_40test_stub_scatter_returns_empty_response
FNDA:6,_RNvXs7_NtCs14cwtawSGIg_11miroir_core7scatterNtB5_11StubScatterNtB5_7Scatter7scatter
FNDA:2,_RNCNvNtNtCs14cwtawSGIg_11miroir_core7scatter5testss_34test_stub_scatter_with_empty_nodes0B7_
FNDA:2,_RNCNvNtNtCs14cwtawSGIg_11miroir_core7scatter5testss_37test_stub_scatter_with_multiple_nodes0B7_
FNDA:2,_RNCNvNtNtCs14cwtawSGIg_11miroir_core7scatter5testss_40test_stub_scatter_returns_empty_response0B7_
FNF:11
FNH:11
DA:78,6
DA:83,6
DA:92,2
DA:93,2
DA:94,2
DA:95,2
DA:96,2
DA:97,2
DA:98,2
DA:100,2
DA:101,2
DA:102,2
DA:103,2
DA:104,2
DA:107,2
DA:108,2
DA:109,2
DA:110,2
DA:111,2
DA:112,2
DA:113,2
DA:114,2
DA:115,2
DA:116,2
DA:118,2
DA:119,2
DA:120,2
DA:121,2
DA:123,2
DA:124,2
DA:125,2
DA:128,2
DA:129,2
DA:130,2
DA:131,2
DA:132,2
DA:134,2
DA:135,2
DA:136,2
DA:139,2
DA:140,2
DA:141,2
DA:142,2
DA:143,2
DA:144,2
DA:145,2
DA:147,2
DA:148,2
DA:149,2
DA:150,2
DA:152,2
DA:153,2
DA:154,2
DA:155,2
DA:156,2
DA:157,2
DA:160,2
DA:161,2
DA:162,2
DA:163,2
DA:164,2
DA:165,2
DA:166,2
DA:168,2
DA:169,2
DA:170,2
DA:171,2
DA:172,2
DA:173,2
DA:176,2
DA:177,2
DA:178,2
DA:179,2
DA:180,2
DA:181,2
DA:182,2
DA:183,2
DA:184,2
DA:185,2
DA:187,2
DA:188,2
DA:189,2
DA:190,2
DA:192,2
DA:193,2
DA:194,2
DA:197,2
DA:198,2
DA:199,2
DA:201,2
DA:202,2
DA:203,2
DA:205,2
DA:206,2
DA:207,2
DA:210,2
DA:211,2
DA:212,2
DA:215,2
DA:216,2
DA:217,2
DA:221,2
DA:222,2
DA:223,2
DA:224,2
DA:225,2
DA:226,2
DA:227,2
DA:229,2
DA:230,2
DA:231,2
DA:232,2
DA:234,2
DA:235,2
DA:236,2
BRF:0
BRH:0
LF:121
LH:121
end_of_record
SF:/home/coding/miroir/crates/miroir-core/src/score_comparability.rs
FN:490,_RNvNtCs14cwtawSGIg_11miroir_core19score_comparability10mean_usize
FN:347,_RNvNtCs14cwtawSGIg_11miroir_core19score_comparability19collect_shard_stats
FN:472,_RNvNtCs14cwtawSGIg_11miroir_core19score_comparability4mean
FN:498,_RNvNtCs14cwtawSGIg_11miroir_core19score_comparability6median
FN:480,_RNvNtCs14cwtawSGIg_11miroir_core19score_comparability7std_dev
FN:133,_RNvNtCs14cwtawSGIg_11miroir_core19score_comparability8simulate
FN:399,_RINvNtCs14cwtawSGIg_11miroir_core19score_comparability11kendall_taujEB4_
FN:399,_RINvNtCs14cwtawSGIg_11miroir_core19score_comparability11kendall_taulEB4_
FN:457,_RINvNtCs14cwtawSGIg_11miroir_core19score_comparability18jaccard_similarityjEB4_
FN:457,_RINvNtCs14cwtawSGIg_11miroir_core19score_comparability18jaccard_similaritylEB4_
FN:210,_RINvNtCs14cwtawSGIg_11miroir_core19score_comparability28generate_skewed_distributionNtNtNtCslmwLMq0gHiC_4rand4rngs3std6StdRngEB4_
FN:210,_RINvNtCs14cwtawSGIg_11miroir_core19score_comparability28generate_skewed_distributionNtNtNtCslmwLMq0gHiC_4rand4rngs6thread9ThreadRngEB4_
FN:242,_RINvNtCs14cwtawSGIg_11miroir_core19score_comparability9run_queryNtNtNtCslmwLMq0gHiC_4rand4rngs3std6StdRngEB4_
FN:408,_RNCINvNtCs14cwtawSGIg_11miroir_core19score_comparability11kendall_taujE0B6_
FN:413,_RNCINvNtCs14cwtawSGIg_11miroir_core19score_comparability11kendall_taujEs_0B6_
FN:408,_RNCINvNtCs14cwtawSGIg_11miroir_core19score_comparability11kendall_taulE0B6_
FN:413,_RNCINvNtCs14cwtawSGIg_11miroir_core19score_comparability11kendall_taulEs_0B6_
FN:237,_RNCINvNtCs14cwtawSGIg_11miroir_core19score_comparability28generate_skewed_distributionNtNtNtCslmwLMq0gHiC_4rand4rngs3std6StdRngEs_0B6_
FN:237,_RNCINvNtCs14cwtawSGIg_11miroir_core19score_comparability28generate_skewed_distributionNtNtNtCslmwLMq0gHiC_4rand4rngs6thread9ThreadRngEs_0B6_
FN:258,_RNCINvNtCs14cwtawSGIg_11miroir_core19score_comparability9run_queryNtNtNtCslmwLMq0gHiC_4rand4rngs3std6StdRngE0B6_
FN:310,_RNCINvNtCs14cwtawSGIg_11miroir_core19score_comparability9run_queryNtNtNtCslmwLMq0gHiC_4rand4rngs3std6StdRngEs1_0B6_
FN:328,_RNCINvNtCs14cwtawSGIg_11miroir_core19score_comparability9run_queryNtNtNtCslmwLMq0gHiC_4rand4rngs3std6StdRngEs3_0B6_
FN:267,_RNCINvNtCs14cwtawSGIg_11miroir_core19score_comparability9run_queryNtNtNtCslmwLMq0gHiC_4rand4rngs3std6StdRngEs_0B6_
FN:365,_RNCNvNtCs14cwtawSGIg_11miroir_core19score_comparability19collect_shard_stats0B5_
FN:373,_RNCNvNtCs14cwtawSGIg_11miroir_core19score_comparability19collect_shard_statss0_0B5_
FN:374,_RNCNvNtCs14cwtawSGIg_11miroir_core19score_comparability19collect_shard_statss1_0B5_
FN:485,_RNCNvNtCs14cwtawSGIg_11miroir_core19score_comparability7std_dev0B5_
FN:152,_RNCNvNtCs14cwtawSGIg_11miroir_core19score_comparability8simulate0B5_
FN:175,_RNCNvNtCs14cwtawSGIg_11miroir_core19score_comparability8simulates0_0B5_
FN:583,_RNvNtNtCs14cwtawSGIg_11miroir_core19score_comparability5testss_20test_simulation_runs
FN:544,_RNvNtNtCs14cwtawSGIg_11miroir_core19score_comparability5testss_22test_jaccard_identical
FN:551,_RNvNtNtCs14cwtawSGIg_11miroir_core19score_comparability5testss_23test_jaccard_no_overlap
FN:558,_RNvNtNtCs14cwtawSGIg_11miroir_core19score_comparability5testss_25test_jaccard_half_overlap
FN:528,_RNvNtNtCs14cwtawSGIg_11miroir_core19score_comparability5testss_25test_kendall_tau_reversed
FN:521,_RNvNtNtCs14cwtawSGIg_11miroir_core19score_comparability5testss_26test_kendall_tau_identical
FN:567,_RNvNtNtCs14cwtawSGIg_11miroir_core19score_comparability5testss_28test_skewed_distribution_sum
FN:535,_RNvNtNtCs14cwtawSGIg_11miroir_core19score_comparability5testss_32test_kendall_tau_partial_overlap
FN:574,_RNvNtNtCs14cwtawSGIg_11miroir_core19score_comparability5testss_33test_skewed_distribution_has_skew
FNDA:2,_RNvNtCs14cwtawSGIg_11miroir_core19score_comparability10mean_usize
FNDA:20,_RNvNtCs14cwtawSGIg_11miroir_core19score_comparability19collect_shard_stats
FNDA:4,_RNvNtCs14cwtawSGIg_11miroir_core19score_comparability4mean
FNDA:2,_RNvNtCs14cwtawSGIg_11miroir_core19score_comparability6median
FNDA:2,_RNvNtCs14cwtawSGIg_11miroir_core19score_comparability7std_dev
FNDA:2,_RNvNtCs14cwtawSGIg_11miroir_core19score_comparability8simulate
FNDA:20,_RINvNtCs14cwtawSGIg_11miroir_core19score_comparability11kendall_taujEB4_
FNDA:6,_RINvNtCs14cwtawSGIg_11miroir_core19score_comparability11kendall_taulEB4_
FNDA:20,_RINvNtCs14cwtawSGIg_11miroir_core19score_comparability18jaccard_similarityjEB4_
FNDA:6,_RINvNtCs14cwtawSGIg_11miroir_core19score_comparability18jaccard_similaritylEB4_
FNDA:2,_RINvNtCs14cwtawSGIg_11miroir_core19score_comparability28generate_skewed_distributionNtNtNtCslmwLMq0gHiC_4rand4rngs3std6StdRngEB4_
FNDA:4,_RINvNtCs14cwtawSGIg_11miroir_core19score_comparability28generate_skewed_distributionNtNtNtCslmwLMq0gHiC_4rand4rngs6thread9ThreadRngEB4_
FNDA:20,_RINvNtCs14cwtawSGIg_11miroir_core19score_comparability9run_queryNtNtNtCslmwLMq0gHiC_4rand4rngs3std6StdRngEB4_
FNDA:200,_RNCINvNtCs14cwtawSGIg_11miroir_core19score_comparability11kendall_taujE0B6_
FNDA:200,_RNCINvNtCs14cwtawSGIg_11miroir_core19score_comparability11kendall_taujEs_0B6_
FNDA:30,_RNCINvNtCs14cwtawSGIg_11miroir_core19score_comparability11kendall_taulE0B6_
FNDA:30,_RNCINvNtCs14cwtawSGIg_11miroir_core19score_comparability11kendall_taulEs_0B6_
FNDA:8,_RNCINvNtCs14cwtawSGIg_11miroir_core19score_comparability28generate_skewed_distributionNtNtNtCslmwLMq0gHiC_4rand4rngs3std6StdRngEs_0B6_
FNDA:40,_RNCINvNtCs14cwtawSGIg_11miroir_core19score_comparability28generate_skewed_distributionNtNtNtCslmwLMq0gHiC_4rand4rngs6thread9ThreadRngEs_0B6_
FNDA:20000,_RNCINvNtCs14cwtawSGIg_11miroir_core19score_comparability9run_queryNtNtNtCslmwLMq0gHiC_4rand4rngs3std6StdRngE0B6_
FNDA:28462,_RNCINvNtCs14cwtawSGIg_11miroir_core19score_comparability9run_queryNtNtNtCslmwLMq0gHiC_4rand4rngs3std6StdRngEs1_0B6_
FNDA:20,_RNCINvNtCs14cwtawSGIg_11miroir_core19score_comparability9run_queryNtNtNtCslmwLMq0gHiC_4rand4rngs3std6StdRngEs3_0B6_
FNDA:213498,_RNCINvNtCs14cwtawSGIg_11miroir_core19score_comparability9run_queryNtNtNtCslmwLMq0gHiC_4rand4rngs3std6StdRngEs_0B6_
FNDA:800,_RNCNvNtCs14cwtawSGIg_11miroir_core19score_comparability19collect_shard_stats0B5_
FNDA:200,_RNCNvNtCs14cwtawSGIg_11miroir_core19score_comparability19collect_shard_statss0_0B5_
FNDA:200,_RNCNvNtCs14cwtawSGIg_11miroir_core19score_comparability19collect_shard_statss1_0B5_
FNDA:20,_RNCNvNtCs14cwtawSGIg_11miroir_core19score_comparability7std_dev0B5_
FNDA:8,_RNCNvNtCs14cwtawSGIg_11miroir_core19score_comparability8simulate0B5_
FNDA:20,_RNCNvNtCs14cwtawSGIg_11miroir_core19score_comparability8simulates0_0B5_
FNDA:2,_RNvNtNtCs14cwtawSGIg_11miroir_core19score_comparability5testss_20test_simulation_runs
FNDA:2,_RNvNtNtCs14cwtawSGIg_11miroir_core19score_comparability5testss_22test_jaccard_identical
FNDA:2,_RNvNtNtCs14cwtawSGIg_11miroir_core19score_comparability5testss_23test_jaccard_no_overlap
FNDA:2,_RNvNtNtCs14cwtawSGIg_11miroir_core19score_comparability5testss_25test_jaccard_half_overlap
FNDA:2,_RNvNtNtCs14cwtawSGIg_11miroir_core19score_comparability5testss_25test_kendall_tau_reversed
FNDA:2,_RNvNtNtCs14cwtawSGIg_11miroir_core19score_comparability5testss_26test_kendall_tau_identical
FNDA:2,_RNvNtNtCs14cwtawSGIg_11miroir_core19score_comparability5testss_28test_skewed_distribution_sum
FNDA:2,_RNvNtNtCs14cwtawSGIg_11miroir_core19score_comparability5testss_32test_kendall_tau_partial_overlap
FNDA:2,_RNvNtNtCs14cwtawSGIg_11miroir_core19score_comparability5testss_33test_skewed_distribution_has_skew
FNF:32
FNH:32
DA:133,2
DA:137,2
DA:140,2
DA:141,2
DA:142,2
DA:143,2
DA:144,2
DA:148,2
DA:149,2
DA:150,2
DA:151,2
DA:152,8
DA:153,2
DA:154,2
DA:155,2
DA:156,2
DA:157,2
DA:158,2
DA:161,2
DA:163,20
DA:164,20
DA:165,20
DA:166,20
DA:169,2
DA:170,2
DA:171,2
DA:172,2
DA:173,2
DA:174,2
DA:175,20
DA:177,2
DA:178,2
DA:180,2
DA:181,2
DA:182,2
DA:183,2
DA:184,2
DA:186,2
DA:187,2
DA:188,2
DA:189,2
DA:190,2
DA:191,2
DA:192,2
DA:193,2
DA:194,2
DA:195,2
DA:196,2
DA:198,2
DA:199,2
DA:200,2
DA:201,2
DA:202,2
DA:203,2
DA:204,2
DA:210,6
DA:211,6
DA:212,6
DA:213,6
DA:214,6
DA:215,6
DA:217,6
DA:221,6
DA:222,6
DA:223,6
DA:224,6
DA:227,54
DA:228,48
DA:229,48
DA:232,6
DA:233,6
DA:235,6
DA:236,6
DA:237,48
DA:238,6
DA:239,6
DA:242,20
DA:243,20
DA:244,20
DA:245,20
DA:246,20
DA:247,20
DA:253,20
DA:257,20
DA:258,20000
DA:259,20000
DA:260,20000
DA:261,20000
DA:262,20000
DA:263,20000
DA:264,20
DA:267,213498
DA:269,20
DA:270,20
DA:271,20
DA:272,20
DA:273,20
DA:280,20
DA:282,80
DA:283,80
DA:284,80
DA:285,80
DA:290,80
DA:291,80
DA:292,80
DA:295,80
DA:296,80
DA:298,19960
DA:299,80
DA:300,80
DA:301,80
DA:302,80
DA:303,19960
DA:304,19960
DA:305,19960
DA:306,19960
DA:310,28462
DA:312,20
DA:313,20
DA:314,20
DA:315,20
DA:316,20
DA:319,20
DA:322,20
DA:325,20
DA:326,20
DA:327,20
DA:328,20
DA:329,20
DA:332,20
DA:333,20
DA:335,20
DA:336,20
DA:337,20
DA:338,20
DA:339,20
DA:340,20
DA:341,20
DA:342,20
DA:343,20
DA:344,20
DA:347,20
DA:348,20
DA:349,20
DA:350,20
DA:351,20
DA:352,20
DA:353,20
DA:356,80
DA:357,80
DA:358,80
DA:359,80
DA:362,80
DA:363,80
DA:364,80
DA:365,800
DA:366,80
DA:367,80
DA:369,80
DA:370,60
DA:371,20
DA:373,200
DA:374,200
DA:375,20
DA:377,20
DA:378,20
DA:379,20
DA:380,20
DA:381,20
DA:382,20
DA:383,20
DA:384,20
DA:385,20
DA:388,20
DA:389,20
DA:399,26
DA:400,26
DA:401,0
DA:402,26
DA:405,26
DA:406,26
DA:407,26
DA:408,230
DA:409,26
DA:410,26
DA:411,26
DA:412,26
DA:413,230
DA:414,26
DA:417,26
DA:420,26
DA:421,26
DA:423,26
DA:424,426
DA:425,3784
DA:426,3784
DA:427,3784
DA:429,3784
DA:430,3784
DA:431,3784
DA:432,3784
DA:435,3784
DA:436,60
DA:437,3724
DA:440,60
DA:441,38
DA:442,38
DA:443,22
DA:444,22
DA:448,26
DA:449,26
DA:450,20
DA:451,6
DA:453,6
DA:454,26
DA:457,26
DA:458,26
DA:459,26
DA:461,26
DA:462,26
DA:464,26
DA:465,0
DA:466,26
DA:468,26
DA:469,26
DA:472,4
DA:473,4
DA:474,0
DA:475,4
DA:476,4
DA:477,4
DA:480,2
DA:481,2
DA:482,0
DA:483,2
DA:484,2
DA:485,20
DA:486,2
DA:487,2
DA:490,2
DA:491,2
DA:492,0
DA:493,2
DA:494,2
DA:495,2
DA:498,2
DA:499,2
DA:500,0
DA:501,2
DA:502,2
DA:503,2
DA:504,2
DA:505,2
DA:506,2
DA:508,0
DA:510,2
DA:521,2
DA:522,2
DA:523,2
DA:524,2
DA:525,2
DA:528,2
DA:529,2
DA:530,2
DA:531,2
DA:532,2
DA:535,2
DA:536,2
DA:537,2
DA:539,2
DA:540,2
DA:541,2
DA:544,2
DA:545,2
DA:546,2
DA:547,2
DA:548,2
DA:551,2
DA:552,2
DA:553,2
DA:554,2
DA:555,2
DA:558,2
DA:559,2
DA:560,2
DA:563,2
DA:564,2
DA:567,2
DA:568,2
DA:569,2
DA:570,2
DA:571,2
DA:574,2
DA:575,2
DA:576,2
DA:577,2
DA:579,2
DA:580,2
DA:583,2
DA:584,2
DA:585,2
DA:586,2
DA:587,2
DA:588,2
DA:589,2
DA:590,2
DA:591,2
DA:592,2
DA:593,2
DA:594,2
DA:595,2
DA:596,2
BRF:0
BRH:0
LF:325
LH:316
end_of_record
SF:/home/coding/miroir/crates/miroir-core/src/task.rs
FN:130,_RNvXNtCs14cwtawSGIg_11miroir_core4taskNtB2_16StubTaskRegistryNtB2_12TaskRegistry13update_status
FN:134,_RNvXNtCs14cwtawSGIg_11miroir_core4taskNtB2_16StubTaskRegistryNtB2_12TaskRegistry16update_node_task
FN:126,_RNvXNtCs14cwtawSGIg_11miroir_core4taskNtB2_16StubTaskRegistryNtB2_12TaskRegistry3get
FN:143,_RNvXNtCs14cwtawSGIg_11miroir_core4taskNtB2_16StubTaskRegistryNtB2_12TaskRegistry4list
FN:116,_RNvXNtCs14cwtawSGIg_11miroir_core4taskNtB2_16StubTaskRegistryNtB2_12TaskRegistry8register
FN:209,_RNvNtNtCs14cwtawSGIg_11miroir_core4task5testss_24test_task_filter_default
FN:232,_RNvNtNtCs14cwtawSGIg_11miroir_core4task5testss_25test_miroir_task_creation
FN:195,_RNvNtNtCs14cwtawSGIg_11miroir_core4task5testss_25test_task_status_equality
FN:258,_RNvNtNtCs14cwtawSGIg_11miroir_core4task5testss_27test_miroir_task_with_error
FN:166,_RNvNtNtCs14cwtawSGIg_11miroir_core4task5testss_27test_stub_task_registry_get
FN:187,_RNvNtNtCs14cwtawSGIg_11miroir_core4task5testss_28test_stub_task_registry_list
FN:218,_RNvNtNtCs14cwtawSGIg_11miroir_core4task5testss_28test_task_filter_with_fields
FN:202,_RNvNtNtCs14cwtawSGIg_11miroir_core4task5testss_30test_node_task_status_equality
FN:153,_RNvNtNtCs14cwtawSGIg_11miroir_core4task5testss_32test_stub_task_registry_register
FN:173,_RNvNtNtCs14cwtawSGIg_11miroir_core4task5testss_37test_stub_task_registry_update_status
FN:180,_RNvNtNtCs14cwtawSGIg_11miroir_core4task5testss_40test_stub_task_registry_update_node_task
FNDA:2,_RNvXNtCs14cwtawSGIg_11miroir_core4taskNtB2_16StubTaskRegistryNtB2_12TaskRegistry13update_status
FNDA:2,_RNvXNtCs14cwtawSGIg_11miroir_core4taskNtB2_16StubTaskRegistryNtB2_12TaskRegistry16update_node_task
FNDA:2,_RNvXNtCs14cwtawSGIg_11miroir_core4taskNtB2_16StubTaskRegistryNtB2_12TaskRegistry3get
FNDA:2,_RNvXNtCs14cwtawSGIg_11miroir_core4taskNtB2_16StubTaskRegistryNtB2_12TaskRegistry4list
FNDA:2,_RNvXNtCs14cwtawSGIg_11miroir_core4taskNtB2_16StubTaskRegistryNtB2_12TaskRegistry8register
FNDA:2,_RNvNtNtCs14cwtawSGIg_11miroir_core4task5testss_24test_task_filter_default
FNDA:2,_RNvNtNtCs14cwtawSGIg_11miroir_core4task5testss_25test_miroir_task_creation
FNDA:2,_RNvNtNtCs14cwtawSGIg_11miroir_core4task5testss_25test_task_status_equality
FNDA:2,_RNvNtNtCs14cwtawSGIg_11miroir_core4task5testss_27test_miroir_task_with_error
FNDA:2,_RNvNtNtCs14cwtawSGIg_11miroir_core4task5testss_27test_stub_task_registry_get
FNDA:2,_RNvNtNtCs14cwtawSGIg_11miroir_core4task5testss_28test_stub_task_registry_list
FNDA:2,_RNvNtNtCs14cwtawSGIg_11miroir_core4task5testss_28test_task_filter_with_fields
FNDA:2,_RNvNtNtCs14cwtawSGIg_11miroir_core4task5testss_30test_node_task_status_equality
FNDA:2,_RNvNtNtCs14cwtawSGIg_11miroir_core4task5testss_32test_stub_task_registry_register
FNDA:2,_RNvNtNtCs14cwtawSGIg_11miroir_core4task5testss_37test_stub_task_registry_update_status
FNDA:2,_RNvNtNtCs14cwtawSGIg_11miroir_core4task5testss_40test_stub_task_registry_update_node_task
FNF:16
FNH:16
DA:116,2
DA:117,2
DA:118,2
DA:119,2
DA:120,2
DA:121,2
DA:122,2
DA:123,2
DA:124,2
DA:126,2
DA:127,2
DA:128,2
DA:130,2
DA:131,2
DA:132,2
DA:134,2
DA:135,2
DA:136,2
DA:137,2
DA:138,2
DA:139,2
DA:140,2
DA:141,2
DA:143,2
DA:144,2
DA:145,2
DA:153,2
DA:154,2
DA:155,2
DA:156,2
DA:158,2
DA:159,2
DA:160,2
DA:161,2
DA:162,2
DA:163,2
DA:166,2
DA:167,2
DA:168,2
DA:169,2
DA:170,2
DA:173,2
DA:174,2
DA:175,2
DA:176,2
DA:177,2
DA:180,2
DA:181,2
DA:182,2
DA:183,2
DA:184,2
DA:187,2
DA:188,2
DA:189,2
DA:190,2
DA:191,2
DA:192,2
DA:195,2
DA:196,2
DA:197,2
DA:198,2
DA:199,2
DA:202,2
DA:203,2
DA:204,2
DA:205,2
DA:206,2
DA:209,2
DA:210,2
DA:211,2
DA:212,2
DA:213,2
DA:214,2
DA:215,2
DA:218,2
DA:219,2
DA:220,2
DA:221,2
DA:222,2
DA:223,2
DA:224,2
DA:225,2
DA:226,2
DA:227,2
DA:228,2
DA:229,2
DA:232,2
DA:233,2
DA:234,2
DA:235,2
DA:236,2
DA:237,2
DA:238,2
DA:239,2
DA:242,2
DA:243,2
DA:244,2
DA:245,2
DA:246,2
DA:247,2
DA:248,2
DA:250,2
DA:251,2
DA:252,2
DA:253,2
DA:254,2
DA:255,2
DA:258,2
DA:259,2
DA:260,2
DA:261,2
DA:262,2
DA:263,2
DA:264,2
DA:265,2
DA:267,2
DA:268,2
DA:269,2
BRF:0
BRH:0
LF:118
LH:118
end_of_record
SF:/home/coding/miroir/crates/miroir-core/src/topology.rs
FN:273,_RNCNvMs6_NtCs14cwtawSGIg_11miroir_core8topologyNtB7_5Group13healthy_nodes0B9_
FN:274,_RNCNvMs6_NtCs14cwtawSGIg_11miroir_core8topologyNtB7_5Group13healthy_nodess_0B9_
FN:362,_RNCNvMs7_NtCs14cwtawSGIg_11miroir_core8topologyNtB7_8Topology22healthy_nodes_in_group0B9_
FN:502,_RNvNtNtCs14cwtawSGIg_11miroir_core8topology5testss_19test_node_id_as_ref
FN:374,_RNvNtNtCs14cwtawSGIg_11miroir_core8topology5testss_20test_node_is_healthy
FN:732,_RNvNtNtCs14cwtawSGIg_11miroir_core8topology5testss_20test_topology_shards
FN:410,_RNvNtNtCs14cwtawSGIg_11miroir_core8topology5testss_21test_group_node_count
FN:772,_RNvNtNtCs14cwtawSGIg_11miroir_core8topology5testss_22test_topology_node_mut
FN:695,_RNvNtNtCs14cwtawSGIg_11miroir_core8topology5testss_24test_group_healthy_nodes
FN:496,_RNvNtNtCs14cwtawSGIg_11miroir_core8topology5testss_24test_node_id_from_string
FN:799,_RNvNtNtCs14cwtawSGIg_11miroir_core8topology5testss_24test_node_status_display
FN:458,_RNvNtNtCs14cwtawSGIg_11miroir_core8topology5testss_24test_topology_nodes_iter
FN:477,_RNvNtNtCs14cwtawSGIg_11miroir_core8topology5testss_25test_topology_groups_iter
FN:635,_RNvNtNtCs14cwtawSGIg_11miroir_core8topology5testss_26test_write_eligible_active
FN:654,_RNvNtNtCs14cwtawSGIg_11miroir_core8topology5testss_26test_write_eligible_failed
FN:629,_RNvNtNtCs14cwtawSGIg_11miroir_core8topology5testss_27test_write_eligible_healthy
FN:647,_RNvNtNtCs14cwtawSGIg_11miroir_core8topology5testss_27test_write_eligible_joining
FN:661,_RNvNtNtCs14cwtawSGIg_11miroir_core8topology5testss_27test_write_eligible_removed
FN:641,_RNvNtNtCs14cwtawSGIg_11miroir_core8topology5testss_28test_write_eligible_degraded
FN:810,_RNvNtNtCs14cwtawSGIg_11miroir_core8topology5testss_29test_transition_error_display
FN:682,_RNvNtNtCs14cwtawSGIg_11miroir_core8topology5testss_31test_node_is_write_eligible_for
FN:562,_RNvNtNtCs14cwtawSGIg_11miroir_core8topology5testss_32test_state_transition_same_state
FN:426,_RNvNtNtCs14cwtawSGIg_11miroir_core8topology5testss_33test_topology_replica_group_count
FN:738,_RNvNtNtCs14cwtawSGIg_11miroir_core8topology5testss_36test_topology_healthy_nodes_in_group
FN:596,_RNvNtNtCs14cwtawSGIg_11miroir_core8topology5testss_37test_node_set_status_valid_transition
FN:526,_RNvNtNtCs14cwtawSGIg_11miroir_core8topology5testss_38test_state_transition_active_to_failed
FN:536,_RNvNtNtCs14cwtawSGIg_11miroir_core8topology5testss_38test_state_transition_failed_to_active
FN:609,_RNvNtNtCs14cwtawSGIg_11miroir_core8topology5testss_39test_node_set_status_invalid_transition
FN:511,_RNvNtNtCs14cwtawSGIg_11miroir_core8topology5testss_39test_state_transition_joining_to_active
FN:541,_RNvNtNtCs14cwtawSGIg_11miroir_core8topology5testss_40test_state_transition_active_to_degraded
FN:516,_RNvNtNtCs14cwtawSGIg_11miroir_core8topology5testss_40test_state_transition_active_to_draining
FN:551,_RNvNtNtCs14cwtawSGIg_11miroir_core8topology5testss_40test_state_transition_degraded_to_active
FN:531,_RNvNtNtCs14cwtawSGIg_11miroir_core8topology5testss_40test_state_transition_draining_to_failed
FN:546,_RNvNtNtCs14cwtawSGIg_11miroir_core8topology5testss_40test_state_transition_failed_to_degraded
FN:521,_RNvNtNtCs14cwtawSGIg_11miroir_core8topology5testss_41test_state_transition_draining_to_removed
FN:676,_RNvNtNtCs14cwtawSGIg_11miroir_core8topology5testss_42test_write_eligible_draining_drained_shard
FN:668,_RNvNtNtCs14cwtawSGIg_11miroir_core8topology5testss_46test_write_eligible_draining_non_drained_shard
FN:583,_RNvNtNtCs14cwtawSGIg_11miroir_core8topology5testss_47test_state_transition_invalid_joining_to_failed
FN:577,_RNvNtNtCs14cwtawSGIg_11miroir_core8topology5testss_49test_state_transition_invalid_joining_to_draining
FN:589,_RNvNtNtCs14cwtawSGIg_11miroir_core8topology5testss_49test_state_transition_invalid_removed_to_anything
FN:556,_RNvNtNtCs14cwtawSGIg_11miroir_core8topology5testss_50test_state_transition_healthy_active_bidirectional
FN:13,_RNvMNtCs14cwtawSGIg_11miroir_core8topologyNtB2_6NodeId3new
FN:18,_RNvMNtCs14cwtawSGIg_11miroir_core8topologyNtB2_6NodeId6as_str
FN:69,_RNvMs1_NtCs14cwtawSGIg_11miroir_core8topologyNtB5_10NodeStatus17can_transition_to
FN:119,_RNvMs1_NtCs14cwtawSGIg_11miroir_core8topologyNtB5_10NodeStatus21is_write_eligible_for
FN:180,_RNvMs3_NtCs14cwtawSGIg_11miroir_core8topologyNtB5_4Node10is_healthy
FN:187,_RNvMs3_NtCs14cwtawSGIg_11miroir_core8topologyNtB5_4Node10set_status
FN:170,_RNvMs3_NtCs14cwtawSGIg_11miroir_core8topologyNtB5_4Node11with_status
FN:204,_RNvMs3_NtCs14cwtawSGIg_11miroir_core8topologyNtB5_4Node21is_write_eligible_for
FN:160,_RNvMs3_NtCs14cwtawSGIg_11miroir_core8topologyNtB5_4Node3new
FN:263,_RNvMs6_NtCs14cwtawSGIg_11miroir_core8topologyNtB5_5Group10node_count
FN:270,_RNvMs6_NtCs14cwtawSGIg_11miroir_core8topologyNtB5_5Group13healthy_nodes
FN:243,_RNvMs6_NtCs14cwtawSGIg_11miroir_core8topologyNtB5_5Group3new
FN:258,_RNvMs6_NtCs14cwtawSGIg_11miroir_core8topologyNtB5_5Group5nodes
FN:251,_RNvMs6_NtCs14cwtawSGIg_11miroir_core8topologyNtB5_5Group8add_node
FN:355,_RNvMs7_NtCs14cwtawSGIg_11miroir_core8topologyNtB5_8Topology19replica_group_count
FN:360,_RNvMs7_NtCs14cwtawSGIg_11miroir_core8topologyNtB5_8Topology22healthy_nodes_in_group
FN:345,_RNvMs7_NtCs14cwtawSGIg_11miroir_core8topologyNtB5_8Topology2rf
FN:297,_RNvMs7_NtCs14cwtawSGIg_11miroir_core8topologyNtB5_8Topology3new
FN:320,_RNvMs7_NtCs14cwtawSGIg_11miroir_core8topologyNtB5_8Topology4node
FN:335,_RNvMs7_NtCs14cwtawSGIg_11miroir_core8topologyNtB5_8Topology5group
FN:330,_RNvMs7_NtCs14cwtawSGIg_11miroir_core8topologyNtB5_8Topology5nodes
FN:340,_RNvMs7_NtCs14cwtawSGIg_11miroir_core8topologyNtB5_8Topology6groups
FN:350,_RNvMs7_NtCs14cwtawSGIg_11miroir_core8topologyNtB5_8Topology6shards
FN:307,_RNvMs7_NtCs14cwtawSGIg_11miroir_core8topologyNtB5_8Topology8add_node
FN:325,_RNvMs7_NtCs14cwtawSGIg_11miroir_core8topologyNtB5_8Topology8node_mut
FN:30,_RNvXs0_NtCs14cwtawSGIg_11miroir_core8topologyNtB5_6NodeIdINtNtCs1p5UDGgVI4d_4core7convert5AsRefeE6as_ref
FN:129,_RNvXs2_NtCs14cwtawSGIg_11miroir_core8topologyNtB5_10NodeStatusNtNtCs1p5UDGgVI4d_4core3fmt7Display3fmt
FN:217,_RNvXs4_NtCs14cwtawSGIg_11miroir_core8topologyNtB5_15TransitionErrorNtNtCs1p5UDGgVI4d_4core3fmt7Display3fmt
FN:24,_RNvXs_NtCs14cwtawSGIg_11miroir_core8topologyNtB4_6NodeIdINtNtCs1p5UDGgVI4d_4core7convert4FromNtNtCsaFPxhswmqCN_5alloc6string6StringE4from
FNDA:12,_RNCNvMs6_NtCs14cwtawSGIg_11miroir_core8topologyNtB7_5Group13healthy_nodes0B9_
FNDA:12,_RNCNvMs6_NtCs14cwtawSGIg_11miroir_core8topologyNtB7_5Group13healthy_nodess_0B9_
FNDA:4,_RNCNvMs7_NtCs14cwtawSGIg_11miroir_core8topologyNtB7_8Topology22healthy_nodes_in_group0B9_
FNDA:2,_RNvNtNtCs14cwtawSGIg_11miroir_core8topology5testss_19test_node_id_as_ref
FNDA:2,_RNvNtNtCs14cwtawSGIg_11miroir_core8topology5testss_20test_node_is_healthy
FNDA:2,_RNvNtNtCs14cwtawSGIg_11miroir_core8topology5testss_20test_topology_shards
FNDA:2,_RNvNtNtCs14cwtawSGIg_11miroir_core8topology5testss_21test_group_node_count
FNDA:2,_RNvNtNtCs14cwtawSGIg_11miroir_core8topology5testss_22test_topology_node_mut
FNDA:2,_RNvNtNtCs14cwtawSGIg_11miroir_core8topology5testss_24test_group_healthy_nodes
FNDA:2,_RNvNtNtCs14cwtawSGIg_11miroir_core8topology5testss_24test_node_id_from_string
FNDA:2,_RNvNtNtCs14cwtawSGIg_11miroir_core8topology5testss_24test_node_status_display
FNDA:2,_RNvNtNtCs14cwtawSGIg_11miroir_core8topology5testss_24test_topology_nodes_iter
FNDA:2,_RNvNtNtCs14cwtawSGIg_11miroir_core8topology5testss_25test_topology_groups_iter
FNDA:2,_RNvNtNtCs14cwtawSGIg_11miroir_core8topology5testss_26test_write_eligible_active
FNDA:2,_RNvNtNtCs14cwtawSGIg_11miroir_core8topology5testss_26test_write_eligible_failed
FNDA:2,_RNvNtNtCs14cwtawSGIg_11miroir_core8topology5testss_27test_write_eligible_healthy
FNDA:2,_RNvNtNtCs14cwtawSGIg_11miroir_core8topology5testss_27test_write_eligible_joining
FNDA:2,_RNvNtNtCs14cwtawSGIg_11miroir_core8topology5testss_27test_write_eligible_removed
FNDA:2,_RNvNtNtCs14cwtawSGIg_11miroir_core8topology5testss_28test_write_eligible_degraded
FNDA:2,_RNvNtNtCs14cwtawSGIg_11miroir_core8topology5testss_29test_transition_error_display
FNDA:2,_RNvNtNtCs14cwtawSGIg_11miroir_core8topology5testss_31test_node_is_write_eligible_for
FNDA:2,_RNvNtNtCs14cwtawSGIg_11miroir_core8topology5testss_32test_state_transition_same_state
FNDA:2,_RNvNtNtCs14cwtawSGIg_11miroir_core8topology5testss_33test_topology_replica_group_count
FNDA:2,_RNvNtNtCs14cwtawSGIg_11miroir_core8topology5testss_36test_topology_healthy_nodes_in_group
FNDA:2,_RNvNtNtCs14cwtawSGIg_11miroir_core8topology5testss_37test_node_set_status_valid_transition
FNDA:2,_RNvNtNtCs14cwtawSGIg_11miroir_core8topology5testss_38test_state_transition_active_to_failed
FNDA:2,_RNvNtNtCs14cwtawSGIg_11miroir_core8topology5testss_38test_state_transition_failed_to_active
FNDA:2,_RNvNtNtCs14cwtawSGIg_11miroir_core8topology5testss_39test_node_set_status_invalid_transition
FNDA:2,_RNvNtNtCs14cwtawSGIg_11miroir_core8topology5testss_39test_state_transition_joining_to_active
FNDA:2,_RNvNtNtCs14cwtawSGIg_11miroir_core8topology5testss_40test_state_transition_active_to_degraded
FNDA:2,_RNvNtNtCs14cwtawSGIg_11miroir_core8topology5testss_40test_state_transition_active_to_draining
FNDA:2,_RNvNtNtCs14cwtawSGIg_11miroir_core8topology5testss_40test_state_transition_degraded_to_active
FNDA:2,_RNvNtNtCs14cwtawSGIg_11miroir_core8topology5testss_40test_state_transition_draining_to_failed
FNDA:2,_RNvNtNtCs14cwtawSGIg_11miroir_core8topology5testss_40test_state_transition_failed_to_degraded
FNDA:2,_RNvNtNtCs14cwtawSGIg_11miroir_core8topology5testss_41test_state_transition_draining_to_removed
FNDA:2,_RNvNtNtCs14cwtawSGIg_11miroir_core8topology5testss_42test_write_eligible_draining_drained_shard
FNDA:2,_RNvNtNtCs14cwtawSGIg_11miroir_core8topology5testss_46test_write_eligible_draining_non_drained_shard
FNDA:2,_RNvNtNtCs14cwtawSGIg_11miroir_core8topology5testss_47test_state_transition_invalid_joining_to_failed
FNDA:2,_RNvNtNtCs14cwtawSGIg_11miroir_core8topology5testss_49test_state_transition_invalid_joining_to_draining
FNDA:2,_RNvNtNtCs14cwtawSGIg_11miroir_core8topology5testss_49test_state_transition_invalid_removed_to_anything
FNDA:2,_RNvNtNtCs14cwtawSGIg_11miroir_core8topology5testss_50test_state_transition_healthy_active_bidirectional
FNDA:246,_RNvMNtCs14cwtawSGIg_11miroir_core8topologyNtB2_6NodeId3new
FNDA:267706202,_RNvMNtCs14cwtawSGIg_11miroir_core8topologyNtB2_6NodeId6as_str
FNDA:50,_RNvMs1_NtCs14cwtawSGIg_11miroir_core8topologyNtB5_10NodeStatus17can_transition_to
FNDA:32,_RNvMs1_NtCs14cwtawSGIg_11miroir_core8topologyNtB5_10NodeStatus21is_write_eligible_for
FNDA:26,_RNvMs3_NtCs14cwtawSGIg_11miroir_core8topologyNtB5_4Node10is_healthy
FNDA:6,_RNvMs3_NtCs14cwtawSGIg_11miroir_core8topologyNtB5_4Node10set_status
FNDA:16,_RNvMs3_NtCs14cwtawSGIg_11miroir_core8topologyNtB5_4Node11with_status
FNDA:2,_RNvMs3_NtCs14cwtawSGIg_11miroir_core8topologyNtB5_4Node21is_write_eligible_for
FNDA:62,_RNvMs3_NtCs14cwtawSGIg_11miroir_core8topologyNtB5_4Node3new
FNDA:8,_RNvMs6_NtCs14cwtawSGIg_11miroir_core8topologyNtB5_5Group10node_count
FNDA:6,_RNvMs6_NtCs14cwtawSGIg_11miroir_core8topologyNtB5_5Group13healthy_nodes
FNDA:48,_RNvMs6_NtCs14cwtawSGIg_11miroir_core8topologyNtB5_5Group3new
FNDA:175788886,_RNvMs6_NtCs14cwtawSGIg_11miroir_core8topologyNtB5_5Group5nodes
FNDA:108,_RNvMs6_NtCs14cwtawSGIg_11miroir_core8topologyNtB5_5Group8add_node
FNDA:8,_RNvMs7_NtCs14cwtawSGIg_11miroir_core8topologyNtB5_8Topology19replica_group_count
FNDA:4,_RNvMs7_NtCs14cwtawSGIg_11miroir_core8topologyNtB5_8Topology22healthy_nodes_in_group
FNDA:16,_RNvMs7_NtCs14cwtawSGIg_11miroir_core8topologyNtB5_8Topology2rf
FNDA:28,_RNvMs7_NtCs14cwtawSGIg_11miroir_core8topologyNtB5_8Topology3new
FNDA:10,_RNvMs7_NtCs14cwtawSGIg_11miroir_core8topologyNtB5_8Topology4node
FNDA:8,_RNvMs7_NtCs14cwtawSGIg_11miroir_core8topologyNtB5_8Topology5group
FNDA:2,_RNvMs7_NtCs14cwtawSGIg_11miroir_core8topologyNtB5_8Topology5nodes
FNDA:10,_RNvMs7_NtCs14cwtawSGIg_11miroir_core8topologyNtB5_8Topology6groups
FNDA:2,_RNvMs7_NtCs14cwtawSGIg_11miroir_core8topologyNtB5_8Topology6shards
FNDA:64,_RNvMs7_NtCs14cwtawSGIg_11miroir_core8topologyNtB5_8Topology8add_node
FNDA:2,_RNvMs7_NtCs14cwtawSGIg_11miroir_core8topologyNtB5_8Topology8node_mut
FNDA:2,_RNvXs0_NtCs14cwtawSGIg_11miroir_core8topologyNtB5_6NodeIdINtNtCs1p5UDGgVI4d_4core7convert5AsRefeE6as_ref
FNDA:18,_RNvXs2_NtCs14cwtawSGIg_11miroir_core8topologyNtB5_10NodeStatusNtNtCs1p5UDGgVI4d_4core3fmt7Display3fmt
FNDA:2,_RNvXs4_NtCs14cwtawSGIg_11miroir_core8topologyNtB5_15TransitionErrorNtNtCs1p5UDGgVI4d_4core3fmt7Display3fmt
FNDA:2,_RNvXs_NtCs14cwtawSGIg_11miroir_core8topologyNtB4_6NodeIdINtNtCs1p5UDGgVI4d_4core7convert4FromNtNtCsaFPxhswmqCN_5alloc6string6StringE4from
FNF:70
FNH:70
DA:13,246
DA:14,246
DA:15,246
DA:18,267706202
DA:19,267706202
DA:20,267706202
DA:24,2
DA:25,2
DA:26,2
DA:30,2
DA:31,2
DA:32,2
DA:69,50
DA:70,50
DA:72,6
DA:75,2
DA:76,2
DA:79,2
DA:80,2
DA:81,2
DA:84,2
DA:85,2
DA:86,2
DA:89,2
DA:90,2
DA:93,24
DA:96,10
DA:98,50
DA:119,32
DA:120,32
DA:121,14
DA:122,12
DA:123,6
DA:125,32
DA:129,18
DA:130,18
DA:131,2
DA:132,2
DA:133,2
DA:134,4
DA:135,4
DA:136,2
DA:137,2
DA:139,18
DA:160,62
DA:161,62
DA:162,62
DA:163,62
DA:164,62
DA:165,62
DA:166,62
DA:167,62
DA:170,16
DA:171,16
DA:172,16
DA:173,16
DA:174,16
DA:175,16
DA:176,16
DA:177,16
DA:180,26
DA:181,26
DA:182,26
DA:187,6
DA:188,6
DA:189,4
DA:190,4
DA:192,2
DA:193,2
DA:194,2
DA:195,2
DA:197,6
DA:204,2
DA:205,2
DA:206,2
DA:217,2
DA:218,2
DA:219,2
DA:220,2
DA:223,2
DA:243,48
DA:244,48
DA:245,48
DA:246,48
DA:247,48
DA:248,48
DA:251,108
DA:252,108
DA:253,106
DA:254,106
DA:255,108
DA:258,175788886
DA:259,175788886
DA:260,175788886
DA:263,8
DA:264,8
DA:265,8
DA:270,6
DA:271,6
DA:272,6
DA:273,12
DA:274,12
DA:275,6
DA:276,6
DA:297,28
DA:298,28
DA:299,28
DA:300,28
DA:301,28
DA:302,28
DA:303,28
DA:304,28
DA:307,64
DA:308,64
DA:311,98
DA:312,34
DA:313,34
DA:315,64
DA:316,64
DA:317,64
DA:320,10
DA:321,10
DA:322,10
DA:325,2
DA:326,2
DA:327,2
DA:330,2
DA:331,2
DA:332,2
DA:335,8
DA:336,8
DA:337,8
DA:340,10
DA:341,10
DA:342,10
DA:345,16
DA:346,16
DA:347,16
DA:350,2
DA:351,2
DA:352,2
DA:355,8
DA:356,8
DA:357,8
DA:360,4
DA:361,4
DA:362,4
DA:363,4
DA:364,4
DA:374,2
DA:375,2
DA:376,2
DA:377,2
DA:382,2
DA:385,2
DA:386,2
DA:389,2
DA:390,2
DA:393,2
DA:394,2
DA:397,2
DA:398,2
DA:401,2
DA:402,2
DA:405,2
DA:406,2
DA:407,2
DA:410,2
DA:411,2
DA:412,2
DA:414,2
DA:415,2
DA:417,2
DA:418,2
DA:421,2
DA:422,2
DA:423,2
DA:426,2
DA:427,2
DA:430,2
DA:433,2
DA:434,2
DA:435,2
DA:438,2
DA:441,2
DA:442,2
DA:443,2
DA:446,2
DA:449,2
DA:450,2
DA:451,2
DA:454,2
DA:455,2
DA:458,2
DA:459,2
DA:461,2
DA:462,2
DA:463,2
DA:466,2
DA:467,2
DA:468,2
DA:472,2
DA:473,2
DA:474,2
DA:477,2
DA:478,2
DA:480,2
DA:481,2
DA:482,2
DA:485,2
DA:486,2
DA:487,2
DA:491,2
DA:492,2
DA:493,2
DA:496,2
DA:497,2
DA:498,2
DA:499,2
DA:502,2
DA:503,2
DA:504,2
DA:505,2
DA:506,2
DA:511,2
DA:512,2
DA:513,2
DA:516,2
DA:517,2
DA:518,2
DA:521,2
DA:522,2
DA:523,2
DA:526,2
DA:527,2
DA:528,2
DA:531,2
DA:532,2
DA:533,2
DA:536,2
DA:537,2
DA:538,2
DA:541,2
DA:542,2
DA:543,2
DA:546,2
DA:547,2
DA:548,2
DA:551,2
DA:552,2
DA:553,2
DA:556,2
DA:557,2
DA:558,2
DA:559,2
DA:562,2
DA:563,14
DA:564,2
DA:565,2
DA:566,2
DA:567,2
DA:568,2
DA:569,2
DA:570,2
DA:572,14
DA:574,2
DA:577,2
DA:579,2
DA:580,2
DA:583,2
DA:585,2
DA:586,2
DA:589,2
DA:591,2
DA:592,2
DA:593,2
DA:596,2
DA:597,2
DA:598,2
DA:599,2
DA:602,2
DA:604,2
DA:605,2
DA:606,2
DA:609,2
DA:610,2
DA:611,2
DA:612,2
DA:614,2
DA:617,2
DA:618,2
DA:619,2
DA:620,2
DA:621,2
DA:623,2
DA:624,2
DA:629,2
DA:630,2
DA:631,2
DA:632,2
DA:635,2
DA:636,2
DA:637,2
DA:638,2
DA:641,2
DA:642,2
DA:643,2
DA:644,2
DA:647,2
DA:649,2
DA:650,2
DA:651,2
DA:654,2
DA:656,2
DA:657,2
DA:658,2
DA:661,2
DA:663,2
DA:664,2
DA:665,2
DA:668,2
DA:670,2
DA:672,2
DA:673,2
DA:676,2
DA:678,2
DA:679,2
DA:682,2
DA:683,2
DA:684,2
DA:685,2
DA:687,2
DA:689,2
DA:690,2
DA:695,2
DA:696,2
DA:697,2
DA:699,2
DA:700,2
DA:701,2
DA:703,2
DA:705,2
DA:706,2
DA:707,2
DA:709,2
DA:711,2
DA:712,2
DA:713,2
DA:715,2
DA:718,2
DA:719,2
DA:720,2
DA:722,2
DA:723,2
DA:724,2
DA:726,2
DA:727,2
DA:728,2
DA:729,2
DA:732,2
DA:733,2
DA:734,2
DA:735,2
DA:738,2
DA:739,2
DA:741,2
DA:742,2
DA:743,2
DA:745,2
DA:747,2
DA:748,2
DA:749,2
DA:751,2
DA:753,2
DA:754,2
DA:755,2
DA:757,2
DA:760,2
DA:761,2
DA:762,2
DA:764,2
DA:765,2
DA:766,2
DA:767,2
DA:772,2
DA:773,2
DA:775,2
DA:776,2
DA:777,2
DA:781,2
DA:783,2
DA:784,2
DA:787,2
DA:788,2
DA:789,2
DA:790,2
DA:792,2
DA:793,2
DA:794,2
DA:799,2
DA:800,2
DA:801,2
DA:802,2
DA:803,2
DA:804,2
DA:805,2
DA:806,2
DA:807,2
DA:810,2
DA:811,2
DA:812,2
DA:813,2
DA:814,2
DA:815,2
DA:816,2
DA:817,2
DA:818,2
DA:819,2
BRF:0
BRH:0
LF:421
LH:421
end_of_record